
rop_keyboard:     file format elf32-i386


Disassembly of section .init:

0804844c <_init>:
 804844c:	53                   	push   %ebx
 804844d:	83 ec 08             	sub    $0x8,%esp
 8048450:	e8 3b 01 00 00       	call   8048590 <__x86.get_pc_thunk.bx>
 8048455:	81 c3 93 3e 00 00    	add    $0x3e93,%ebx
 804845b:	8b 83 fc ff ff ff    	mov    -0x4(%ebx),%eax
 8048461:	85 c0                	test   %eax,%eax
 8048463:	74 05                	je     804846a <_init+0x1e>
 8048465:	e8 e6 00 00 00       	call   8048550 <fputs@plt+0x10>
 804846a:	83 c4 08             	add    $0x8,%esp
 804846d:	5b                   	pop    %ebx
 804846e:	c3                   	ret    

Disassembly of section .plt:

08048470 <gets@plt-0x10>:
 8048470:	ff 35 ec c2 04 08    	pushl  0x804c2ec
 8048476:	ff 25 f0 c2 04 08    	jmp    *0x804c2f0
 804847c:	00 00                	add    %al,(%eax)
	...

08048480 <gets@plt>:
 8048480:	ff 25 f4 c2 04 08    	jmp    *0x804c2f4
 8048486:	68 00 00 00 00       	push   $0x0
 804848b:	e9 e0 ff ff ff       	jmp    8048470 <_init+0x24>

08048490 <fgets@plt>:
 8048490:	ff 25 f8 c2 04 08    	jmp    *0x804c2f8
 8048496:	68 08 00 00 00       	push   $0x8
 804849b:	e9 d0 ff ff ff       	jmp    8048470 <_init+0x24>

080484a0 <fclose@plt>:
 80484a0:	ff 25 fc c2 04 08    	jmp    *0x804c2fc
 80484a6:	68 10 00 00 00       	push   $0x10
 80484ab:	e9 c0 ff ff ff       	jmp    8048470 <_init+0x24>

080484b0 <chdir@plt>:
 80484b0:	ff 25 00 c3 04 08    	jmp    *0x804c300
 80484b6:	68 18 00 00 00       	push   $0x18
 80484bb:	e9 b0 ff ff ff       	jmp    8048470 <_init+0x24>

080484c0 <puts@plt>:
 80484c0:	ff 25 04 c3 04 08    	jmp    *0x804c304
 80484c6:	68 20 00 00 00       	push   $0x20
 80484cb:	e9 a0 ff ff ff       	jmp    8048470 <_init+0x24>

080484d0 <system@plt>:
 80484d0:	ff 25 08 c3 04 08    	jmp    *0x804c308
 80484d6:	68 28 00 00 00       	push   $0x28
 80484db:	e9 90 ff ff ff       	jmp    8048470 <_init+0x24>

080484e0 <exit@plt>:
 80484e0:	ff 25 0c c3 04 08    	jmp    *0x804c30c
 80484e6:	68 30 00 00 00       	push   $0x30
 80484eb:	e9 80 ff ff ff       	jmp    8048470 <_init+0x24>

080484f0 <__libc_start_main@plt>:
 80484f0:	ff 25 10 c3 04 08    	jmp    *0x804c310
 80484f6:	68 38 00 00 00       	push   $0x38
 80484fb:	e9 70 ff ff ff       	jmp    8048470 <_init+0x24>

08048500 <setvbuf@plt>:
 8048500:	ff 25 14 c3 04 08    	jmp    *0x804c314
 8048506:	68 40 00 00 00       	push   $0x40
 804850b:	e9 60 ff ff ff       	jmp    8048470 <_init+0x24>

08048510 <fopen@plt>:
 8048510:	ff 25 18 c3 04 08    	jmp    *0x804c318
 8048516:	68 48 00 00 00       	push   $0x48
 804851b:	e9 50 ff ff ff       	jmp    8048470 <_init+0x24>

08048520 <strtok@plt>:
 8048520:	ff 25 1c c3 04 08    	jmp    *0x804c31c
 8048526:	68 50 00 00 00       	push   $0x50
 804852b:	e9 40 ff ff ff       	jmp    8048470 <_init+0x24>

08048530 <sprintf@plt>:
 8048530:	ff 25 20 c3 04 08    	jmp    *0x804c320
 8048536:	68 58 00 00 00       	push   $0x58
 804853b:	e9 30 ff ff ff       	jmp    8048470 <_init+0x24>

08048540 <fputs@plt>:
 8048540:	ff 25 24 c3 04 08    	jmp    *0x804c324
 8048546:	68 60 00 00 00       	push   $0x60
 804854b:	e9 20 ff ff ff       	jmp    8048470 <_init+0x24>

Disassembly of section .plt.got:

08048550 <.plt.got>:
 8048550:	ff 25 e4 c2 04 08    	jmp    *0x804c2e4
 8048556:	66 90                	xchg   %ax,%ax

Disassembly of section .text:

08048560 <_start>:
 8048560:	31 ed                	xor    %ebp,%ebp
 8048562:	5e                   	pop    %esi
 8048563:	89 e1                	mov    %esp,%ecx
 8048565:	83 e4 f0             	and    $0xfffffff0,%esp
 8048568:	50                   	push   %eax
 8048569:	54                   	push   %esp
 804856a:	52                   	push   %edx
 804856b:	68 b0 9a 04 08       	push   $0x8049ab0
 8048570:	68 50 9a 04 08       	push   $0x8049a50
 8048575:	51                   	push   %ecx
 8048576:	56                   	push   %esi
 8048577:	68 d6 89 04 08       	push   $0x80489d6
 804857c:	e8 6f ff ff ff       	call   80484f0 <__libc_start_main@plt>
 8048581:	f4                   	hlt    
 8048582:	66 90                	xchg   %ax,%ax
 8048584:	66 90                	xchg   %ax,%ax
 8048586:	66 90                	xchg   %ax,%ax
 8048588:	66 90                	xchg   %ax,%ax
 804858a:	66 90                	xchg   %ax,%ax
 804858c:	66 90                	xchg   %ax,%ax
 804858e:	66 90                	xchg   %ax,%ax

08048590 <__x86.get_pc_thunk.bx>:
 8048590:	8b 1c 24             	mov    (%esp),%ebx
 8048593:	c3                   	ret    
 8048594:	66 90                	xchg   %ax,%ax
 8048596:	66 90                	xchg   %ax,%ax
 8048598:	66 90                	xchg   %ax,%ax
 804859a:	66 90                	xchg   %ax,%ax
 804859c:	66 90                	xchg   %ax,%ax
 804859e:	66 90                	xchg   %ax,%ax

080485a0 <deregister_tm_clones>:
 80485a0:	b8 33 c3 04 08       	mov    $0x804c333,%eax
 80485a5:	2d 30 c3 04 08       	sub    $0x804c330,%eax
 80485aa:	83 f8 06             	cmp    $0x6,%eax
 80485ad:	76 1a                	jbe    80485c9 <deregister_tm_clones+0x29>
 80485af:	b8 00 00 00 00       	mov    $0x0,%eax
 80485b4:	85 c0                	test   %eax,%eax
 80485b6:	74 11                	je     80485c9 <deregister_tm_clones+0x29>
 80485b8:	55                   	push   %ebp
 80485b9:	89 e5                	mov    %esp,%ebp
 80485bb:	83 ec 14             	sub    $0x14,%esp
 80485be:	68 30 c3 04 08       	push   $0x804c330
 80485c3:	ff d0                	call   *%eax
 80485c5:	83 c4 10             	add    $0x10,%esp
 80485c8:	c9                   	leave  
 80485c9:	f3 c3                	repz ret 
 80485cb:	90                   	nop
 80485cc:	8d 74 26 00          	lea    0x0(%esi,%eiz,1),%esi

080485d0 <register_tm_clones>:
 80485d0:	b8 30 c3 04 08       	mov    $0x804c330,%eax
 80485d5:	2d 30 c3 04 08       	sub    $0x804c330,%eax
 80485da:	c1 f8 02             	sar    $0x2,%eax
 80485dd:	89 c2                	mov    %eax,%edx
 80485df:	c1 ea 1f             	shr    $0x1f,%edx
 80485e2:	01 d0                	add    %edx,%eax
 80485e4:	d1 f8                	sar    %eax
 80485e6:	74 1b                	je     8048603 <register_tm_clones+0x33>
 80485e8:	ba 00 00 00 00       	mov    $0x0,%edx
 80485ed:	85 d2                	test   %edx,%edx
 80485ef:	74 12                	je     8048603 <register_tm_clones+0x33>
 80485f1:	55                   	push   %ebp
 80485f2:	89 e5                	mov    %esp,%ebp
 80485f4:	83 ec 10             	sub    $0x10,%esp
 80485f7:	50                   	push   %eax
 80485f8:	68 30 c3 04 08       	push   $0x804c330
 80485fd:	ff d2                	call   *%edx
 80485ff:	83 c4 10             	add    $0x10,%esp
 8048602:	c9                   	leave  
 8048603:	f3 c3                	repz ret 
 8048605:	8d 74 26 00          	lea    0x0(%esi,%eiz,1),%esi
 8048609:	8d bc 27 00 00 00 00 	lea    0x0(%edi,%eiz,1),%edi

08048610 <__do_global_dtors_aux>:
 8048610:	80 3d 48 c3 04 08 00 	cmpb   $0x0,0x804c348
 8048617:	75 13                	jne    804862c <__do_global_dtors_aux+0x1c>
 8048619:	55                   	push   %ebp
 804861a:	89 e5                	mov    %esp,%ebp
 804861c:	83 ec 08             	sub    $0x8,%esp
 804861f:	e8 7c ff ff ff       	call   80485a0 <deregister_tm_clones>
 8048624:	c6 05 48 c3 04 08 01 	movb   $0x1,0x804c348
 804862b:	c9                   	leave  
 804862c:	f3 c3                	repz ret 
 804862e:	66 90                	xchg   %ax,%ax

08048630 <frame_dummy>:
 8048630:	b8 f8 c1 04 08       	mov    $0x804c1f8,%eax
 8048635:	8b 10                	mov    (%eax),%edx
 8048637:	85 d2                	test   %edx,%edx
 8048639:	75 05                	jne    8048640 <frame_dummy+0x10>
 804863b:	eb 93                	jmp    80485d0 <register_tm_clones>
 804863d:	8d 76 00             	lea    0x0(%esi),%esi
 8048640:	ba 00 00 00 00       	mov    $0x0,%edx
 8048645:	85 d2                	test   %edx,%edx
 8048647:	74 f2                	je     804863b <frame_dummy+0xb>
 8048649:	55                   	push   %ebp
 804864a:	89 e5                	mov    %esp,%ebp
 804864c:	83 ec 14             	sub    $0x14,%esp
 804864f:	50                   	push   %eax
 8048650:	ff d2                	call   *%edx
 8048652:	83 c4 10             	add    $0x10,%esp
 8048655:	c9                   	leave  
 8048656:	e9 75 ff ff ff       	jmp    80485d0 <register_tm_clones>

0804865b <create_melody>:
 804865b:	55                   	push   %ebp
 804865c:	89 e5                	mov    %esp,%ebp
 804865e:	81 ec 58 01 00 00    	sub    $0x158,%esp
 8048664:	83 ec 0c             	sub    $0xc,%esp
 8048667:	68 d0 9a 04 08       	push   $0x8049ad0
 804866c:	e8 4f fe ff ff       	call   80484c0 <puts@plt>
 8048671:	83 c4 10             	add    $0x10,%esp
 8048674:	83 ec 0c             	sub    $0xc,%esp
 8048677:	68 f1 9a 04 08       	push   $0x8049af1
 804867c:	e8 3f fe ff ff       	call   80484c0 <puts@plt>
 8048681:	83 c4 10             	add    $0x10,%esp
 8048684:	83 ec 0c             	sub    $0xc,%esp
 8048687:	68 0d 9b 04 08       	push   $0x8049b0d
 804868c:	e8 2f fe ff ff       	call   80484c0 <puts@plt>
 8048691:	83 c4 10             	add    $0x10,%esp
 8048694:	a1 40 c3 04 08       	mov    0x804c340,%eax
 8048699:	83 ec 04             	sub    $0x4,%esp
 804869c:	50                   	push   %eax
 804869d:	6a 10                	push   $0x10
 804869f:	8d 45 e4             	lea    -0x1c(%ebp),%eax
 80486a2:	50                   	push   %eax
 80486a3:	e8 e8 fd ff ff       	call   8048490 <fgets@plt>
 80486a8:	83 c4 10             	add    $0x10,%esp
 80486ab:	83 ec 08             	sub    $0x8,%esp
 80486ae:	68 1a 9b 04 08       	push   $0x8049b1a
 80486b3:	8d 45 e4             	lea    -0x1c(%ebp),%eax
 80486b6:	50                   	push   %eax
 80486b7:	e8 64 fe ff ff       	call   8048520 <strtok@plt>
 80486bc:	83 c4 10             	add    $0x10,%esp
 80486bf:	83 ec 0c             	sub    $0xc,%esp
 80486c2:	68 1c 9b 04 08       	push   $0x8049b1c
 80486c7:	e8 f4 fd ff ff       	call   80484c0 <puts@plt>
 80486cc:	83 c4 10             	add    $0x10,%esp
 80486cf:	a1 40 c3 04 08       	mov    0x804c340,%eax
 80486d4:	83 ec 04             	sub    $0x4,%esp
 80486d7:	50                   	push   %eax
 80486d8:	6a 10                	push   $0x10
 80486da:	8d 45 d4             	lea    -0x2c(%ebp),%eax
 80486dd:	50                   	push   %eax
 80486de:	e8 ad fd ff ff       	call   8048490 <fgets@plt>
 80486e3:	83 c4 10             	add    $0x10,%esp
 80486e6:	83 ec 08             	sub    $0x8,%esp
 80486e9:	68 1a 9b 04 08       	push   $0x8049b1a
 80486ee:	8d 45 d4             	lea    -0x2c(%ebp),%eax
 80486f1:	50                   	push   %eax
 80486f2:	e8 29 fe ff ff       	call   8048520 <strtok@plt>
 80486f7:	83 c4 10             	add    $0x10,%esp
 80486fa:	83 ec 0c             	sub    $0xc,%esp
 80486fd:	68 2d 9b 04 08       	push   $0x8049b2d
 8048702:	e8 b9 fd ff ff       	call   80484c0 <puts@plt>
 8048707:	83 c4 10             	add    $0x10,%esp
 804870a:	a1 40 c3 04 08       	mov    0x804c340,%eax
 804870f:	83 ec 04             	sub    $0x4,%esp
 8048712:	50                   	push   %eax
 8048713:	68 00 01 00 00       	push   $0x100
 8048718:	8d 85 d4 fe ff ff    	lea    -0x12c(%ebp),%eax
 804871e:	50                   	push   %eax
 804871f:	e8 6c fd ff ff       	call   8048490 <fgets@plt>
 8048724:	83 c4 10             	add    $0x10,%esp
 8048727:	83 ec 08             	sub    $0x8,%esp
 804872a:	68 1a 9b 04 08       	push   $0x8049b1a
 804872f:	8d 85 d4 fe ff ff    	lea    -0x12c(%ebp),%eax
 8048735:	50                   	push   %eax
 8048736:	e8 e5 fd ff ff       	call   8048520 <strtok@plt>
 804873b:	83 c4 10             	add    $0x10,%esp
 804873e:	8d 45 d4             	lea    -0x2c(%ebp),%eax
 8048741:	50                   	push   %eax
 8048742:	8d 45 e4             	lea    -0x1c(%ebp),%eax
 8048745:	50                   	push   %eax
 8048746:	68 35 9b 04 08       	push   $0x8049b35
 804874b:	8d 85 b4 fe ff ff    	lea    -0x14c(%ebp),%eax
 8048751:	50                   	push   %eax
 8048752:	e8 d9 fd ff ff       	call   8048530 <sprintf@plt>
 8048757:	83 c4 10             	add    $0x10,%esp
 804875a:	83 ec 08             	sub    $0x8,%esp
 804875d:	68 40 9b 04 08       	push   $0x8049b40
 8048762:	8d 85 b4 fe ff ff    	lea    -0x14c(%ebp),%eax
 8048768:	50                   	push   %eax
 8048769:	e8 a2 fd ff ff       	call   8048510 <fopen@plt>
 804876e:	83 c4 10             	add    $0x10,%esp
 8048771:	89 45 f4             	mov    %eax,-0xc(%ebp)
 8048774:	83 7d f4 00          	cmpl   $0x0,-0xc(%ebp)
 8048778:	75 1a                	jne    8048794 <create_melody+0x139>
 804877a:	83 ec 0c             	sub    $0xc,%esp
 804877d:	68 44 9b 04 08       	push   $0x8049b44
 8048782:	e8 39 fd ff ff       	call   80484c0 <puts@plt>
 8048787:	83 c4 10             	add    $0x10,%esp
 804878a:	83 ec 0c             	sub    $0xc,%esp
 804878d:	6a 01                	push   $0x1
 804878f:	e8 4c fd ff ff       	call   80484e0 <exit@plt>
 8048794:	83 ec 08             	sub    $0x8,%esp
 8048797:	ff 75 f4             	pushl  -0xc(%ebp)
 804879a:	8d 85 d4 fe ff ff    	lea    -0x12c(%ebp),%eax
 80487a0:	50                   	push   %eax
 80487a1:	e8 9a fd ff ff       	call   8048540 <fputs@plt>
 80487a6:	83 c4 10             	add    $0x10,%esp
 80487a9:	83 ec 0c             	sub    $0xc,%esp
 80487ac:	ff 75 f4             	pushl  -0xc(%ebp)
 80487af:	e8 ec fc ff ff       	call   80484a0 <fclose@plt>
 80487b4:	83 c4 10             	add    $0x10,%esp
 80487b7:	90                   	nop
 80487b8:	c9                   	leave  
 80487b9:	c3                   	ret    

080487ba <play_melody>:
 80487ba:	55                   	push   %ebp
 80487bb:	89 e5                	mov    %esp,%ebp
 80487bd:	81 ec 58 01 00 00    	sub    $0x158,%esp
 80487c3:	83 ec 0c             	sub    $0xc,%esp
 80487c6:	68 0d 9b 04 08       	push   $0x8049b0d
 80487cb:	e8 f0 fc ff ff       	call   80484c0 <puts@plt>
 80487d0:	83 c4 10             	add    $0x10,%esp
 80487d3:	a1 40 c3 04 08       	mov    0x804c340,%eax
 80487d8:	83 ec 04             	sub    $0x4,%esp
 80487db:	50                   	push   %eax
 80487dc:	6a 10                	push   $0x10
 80487de:	8d 45 e4             	lea    -0x1c(%ebp),%eax
 80487e1:	50                   	push   %eax
 80487e2:	e8 a9 fc ff ff       	call   8048490 <fgets@plt>
 80487e7:	83 c4 10             	add    $0x10,%esp
 80487ea:	83 ec 08             	sub    $0x8,%esp
 80487ed:	68 1a 9b 04 08       	push   $0x8049b1a
 80487f2:	8d 45 e4             	lea    -0x1c(%ebp),%eax
 80487f5:	50                   	push   %eax
 80487f6:	e8 25 fd ff ff       	call   8048520 <strtok@plt>
 80487fb:	83 c4 10             	add    $0x10,%esp
 80487fe:	83 ec 0c             	sub    $0xc,%esp
 8048801:	68 1c 9b 04 08       	push   $0x8049b1c
 8048806:	e8 b5 fc ff ff       	call   80484c0 <puts@plt>
 804880b:	83 c4 10             	add    $0x10,%esp
 804880e:	a1 40 c3 04 08       	mov    0x804c340,%eax
 8048813:	83 ec 04             	sub    $0x4,%esp
 8048816:	50                   	push   %eax
 8048817:	6a 10                	push   $0x10
 8048819:	8d 45 d4             	lea    -0x2c(%ebp),%eax
 804881c:	50                   	push   %eax
 804881d:	e8 6e fc ff ff       	call   8048490 <fgets@plt>
 8048822:	83 c4 10             	add    $0x10,%esp
 8048825:	83 ec 08             	sub    $0x8,%esp
 8048828:	68 1a 9b 04 08       	push   $0x8049b1a
 804882d:	8d 45 d4             	lea    -0x2c(%ebp),%eax
 8048830:	50                   	push   %eax
 8048831:	e8 ea fc ff ff       	call   8048520 <strtok@plt>
 8048836:	83 c4 10             	add    $0x10,%esp
 8048839:	8d 45 d4             	lea    -0x2c(%ebp),%eax
 804883c:	50                   	push   %eax
 804883d:	8d 45 e4             	lea    -0x1c(%ebp),%eax
 8048840:	50                   	push   %eax
 8048841:	68 35 9b 04 08       	push   $0x8049b35
 8048846:	8d 85 b4 fe ff ff    	lea    -0x14c(%ebp),%eax
 804884c:	50                   	push   %eax
 804884d:	e8 de fc ff ff       	call   8048530 <sprintf@plt>
 8048852:	83 c4 10             	add    $0x10,%esp
 8048855:	83 ec 08             	sub    $0x8,%esp
 8048858:	68 64 9b 04 08       	push   $0x8049b64
 804885d:	8d 85 b4 fe ff ff    	lea    -0x14c(%ebp),%eax
 8048863:	50                   	push   %eax
 8048864:	e8 a7 fc ff ff       	call   8048510 <fopen@plt>
 8048869:	83 c4 10             	add    $0x10,%esp
 804886c:	89 45 f4             	mov    %eax,-0xc(%ebp)
 804886f:	83 7d f4 00          	cmpl   $0x0,-0xc(%ebp)
 8048873:	75 1a                	jne    804888f <play_melody+0xd5>
 8048875:	83 ec 0c             	sub    $0xc,%esp
 8048878:	68 66 9b 04 08       	push   $0x8049b66
 804887d:	e8 3e fc ff ff       	call   80484c0 <puts@plt>
 8048882:	83 c4 10             	add    $0x10,%esp
 8048885:	83 ec 0c             	sub    $0xc,%esp
 8048888:	6a 01                	push   $0x1
 804888a:	e8 51 fc ff ff       	call   80484e0 <exit@plt>
 804888f:	83 ec 04             	sub    $0x4,%esp
 8048892:	ff 75 f4             	pushl  -0xc(%ebp)
 8048895:	68 00 01 00 00       	push   $0x100
 804889a:	8d 85 d4 fe ff ff    	lea    -0x12c(%ebp),%eax
 80488a0:	50                   	push   %eax
 80488a1:	e8 ea fb ff ff       	call   8048490 <fgets@plt>
 80488a6:	83 c4 10             	add    $0x10,%esp
 80488a9:	83 ec 0c             	sub    $0xc,%esp
 80488ac:	ff 75 f4             	pushl  -0xc(%ebp)
 80488af:	e8 ec fb ff ff       	call   80484a0 <fclose@plt>
 80488b4:	83 c4 10             	add    $0x10,%esp
 80488b7:	83 ec 0c             	sub    $0xc,%esp
 80488ba:	68 84 9b 04 08       	push   $0x8049b84
 80488bf:	e8 fc fb ff ff       	call   80484c0 <puts@plt>
 80488c4:	83 c4 10             	add    $0x10,%esp
 80488c7:	83 ec 0c             	sub    $0xc,%esp
 80488ca:	68 96 9b 04 08       	push   $0x8049b96
 80488cf:	e8 ec fb ff ff       	call   80484c0 <puts@plt>
 80488d4:	83 c4 10             	add    $0x10,%esp
 80488d7:	83 ec 0c             	sub    $0xc,%esp
 80488da:	8d 85 d4 fe ff ff    	lea    -0x12c(%ebp),%eax
 80488e0:	50                   	push   %eax
 80488e1:	e8 da fb ff ff       	call   80484c0 <puts@plt>
 80488e6:	83 c4 10             	add    $0x10,%esp
 80488e9:	83 ec 0c             	sub    $0xc,%esp
 80488ec:	68 96 9b 04 08       	push   $0x8049b96
 80488f1:	e8 ca fb ff ff       	call   80484c0 <puts@plt>
 80488f6:	83 c4 10             	add    $0x10,%esp
 80488f9:	83 ec 0c             	sub    $0xc,%esp
 80488fc:	68 98 9b 04 08       	push   $0x8049b98
 8048901:	e8 ba fb ff ff       	call   80484c0 <puts@plt>
 8048906:	83 c4 10             	add    $0x10,%esp
 8048909:	83 ec 0c             	sub    $0xc,%esp
 804890c:	68 c9 9b 04 08       	push   $0x8049bc9
 8048911:	e8 aa fb ff ff       	call   80484c0 <puts@plt>
 8048916:	83 c4 10             	add    $0x10,%esp
 8048919:	90                   	nop
 804891a:	c9                   	leave  
 804891b:	c3                   	ret    

0804891c <menu>:
 804891c:	55                   	push   %ebp
 804891d:	89 e5                	mov    %esp,%ebp
 804891f:	83 ec 18             	sub    $0x18,%esp
 8048922:	83 ec 0c             	sub    $0xc,%esp
 8048925:	68 d8 9b 04 08       	push   $0x8049bd8
 804892a:	e8 91 fb ff ff       	call   80484c0 <puts@plt>
 804892f:	83 c4 10             	add    $0x10,%esp
 8048932:	83 ec 0c             	sub    $0xc,%esp
 8048935:	68 96 9b 04 08       	push   $0x8049b96
 804893a:	e8 81 fb ff ff       	call   80484c0 <puts@plt>
 804893f:	83 c4 10             	add    $0x10,%esp
 8048942:	83 ec 0c             	sub    $0xc,%esp
 8048945:	68 fe 9b 04 08       	push   $0x8049bfe
 804894a:	e8 71 fb ff ff       	call   80484c0 <puts@plt>
 804894f:	83 c4 10             	add    $0x10,%esp
 8048952:	83 ec 0c             	sub    $0xc,%esp
 8048955:	68 0e 9c 04 08       	push   $0x8049c0e
 804895a:	e8 61 fb ff ff       	call   80484c0 <puts@plt>
 804895f:	83 c4 10             	add    $0x10,%esp
 8048962:	83 ec 0c             	sub    $0xc,%esp
 8048965:	68 1e 9c 04 08       	push   $0x8049c1e
 804896a:	e8 51 fb ff ff       	call   80484c0 <puts@plt>
 804896f:	83 c4 10             	add    $0x10,%esp
 8048972:	83 ec 0c             	sub    $0xc,%esp
 8048975:	68 2c 9c 04 08       	push   $0x8049c2c
 804897a:	e8 41 fb ff ff       	call   80484c0 <puts@plt>
 804897f:	83 c4 10             	add    $0x10,%esp
 8048982:	83 ec 0c             	sub    $0xc,%esp
 8048985:	8d 45 e8             	lea    -0x18(%ebp),%eax
 8048988:	50                   	push   %eax
 8048989:	e8 f2 fa ff ff       	call   8048480 <gets@plt>
 804898e:	83 c4 10             	add    $0x10,%esp
 8048991:	83 ec 0c             	sub    $0xc,%esp
 8048994:	68 96 9b 04 08       	push   $0x8049b96
 8048999:	e8 22 fb ff ff       	call   80484c0 <puts@plt>
 804899e:	83 c4 10             	add    $0x10,%esp
 80489a1:	0f b6 45 e8          	movzbl -0x18(%ebp),%eax
 80489a5:	0f be c0             	movsbl %al,%eax
 80489a8:	83 f8 43             	cmp    $0x43,%eax
 80489ab:	74 07                	je     80489b4 <menu+0x98>
 80489ad:	83 f8 50             	cmp    $0x50,%eax
 80489b0:	74 09                	je     80489bb <menu+0x9f>
 80489b2:	eb 0e                	jmp    80489c2 <menu+0xa6>
 80489b4:	e8 a2 fc ff ff       	call   804865b <create_melody>
 80489b9:	eb 18                	jmp    80489d3 <menu+0xb7>
 80489bb:	e8 fa fd ff ff       	call   80487ba <play_melody>
 80489c0:	eb 11                	jmp    80489d3 <menu+0xb7>
 80489c2:	83 ec 0c             	sub    $0xc,%esp
 80489c5:	68 34 9c 04 08       	push   $0x8049c34
 80489ca:	e8 f1 fa ff ff       	call   80484c0 <puts@plt>
 80489cf:	83 c4 10             	add    $0x10,%esp
 80489d2:	90                   	nop
 80489d3:	90                   	nop
 80489d4:	c9                   	leave  
 80489d5:	c3                   	ret    

080489d6 <main>:
 80489d6:	8d 4c 24 04          	lea    0x4(%esp),%ecx
 80489da:	83 e4 f0             	and    $0xfffffff0,%esp
 80489dd:	ff 71 fc             	pushl  -0x4(%ecx)
 80489e0:	55                   	push   %ebp
 80489e1:	89 e5                	mov    %esp,%ebp
 80489e3:	51                   	push   %ecx
 80489e4:	83 ec 04             	sub    $0x4,%esp
 80489e7:	83 ec 0c             	sub    $0xc,%esp
 80489ea:	68 4b 9c 04 08       	push   $0x8049c4b
 80489ef:	e8 bc fa ff ff       	call   80484b0 <chdir@plt>
 80489f4:	83 c4 10             	add    $0x10,%esp
 80489f7:	a1 40 c3 04 08       	mov    0x804c340,%eax
 80489fc:	6a 00                	push   $0x0
 80489fe:	6a 02                	push   $0x2
 8048a00:	6a 00                	push   $0x0
 8048a02:	50                   	push   %eax
 8048a03:	e8 f8 fa ff ff       	call   8048500 <setvbuf@plt>
 8048a08:	83 c4 10             	add    $0x10,%esp
 8048a0b:	a1 44 c3 04 08       	mov    0x804c344,%eax
 8048a10:	6a 00                	push   $0x0
 8048a12:	6a 02                	push   $0x2
 8048a14:	6a 00                	push   $0x0
 8048a16:	50                   	push   %eax
 8048a17:	e8 e4 fa ff ff       	call   8048500 <setvbuf@plt>
 8048a1c:	83 c4 10             	add    $0x10,%esp
 8048a1f:	e8 f8 fe ff ff       	call   804891c <menu>
 8048a24:	b8 00 00 00 00       	mov    $0x0,%eax
 8048a29:	8b 4d fc             	mov    -0x4(%ebp),%ecx
 8048a2c:	c9                   	leave  
 8048a2d:	8d 61 fc             	lea    -0x4(%ecx),%esp
 8048a30:	c3                   	ret    

08048a31 <play_x00>:
 8048a31:	55                   	push   %ebp
 8048a32:	89 e5                	mov    %esp,%ebp
 8048a34:	0f b6 05 60 c4 04 08 	movzbl 0x804c460,%eax
 8048a3b:	8d 50 01             	lea    0x1(%eax),%edx
 8048a3e:	88 15 60 c4 04 08    	mov    %dl,0x804c460
 8048a44:	0f b6 c0             	movzbl %al,%eax
 8048a47:	c6 80 60 c3 04 08 00 	movb   $0x0,0x804c360(%eax)
 8048a4e:	90                   	nop
 8048a4f:	5d                   	pop    %ebp
 8048a50:	c3                   	ret    

08048a51 <play_x01>:
 8048a51:	55                   	push   %ebp
 8048a52:	89 e5                	mov    %esp,%ebp
 8048a54:	0f b6 05 60 c4 04 08 	movzbl 0x804c460,%eax
 8048a5b:	8d 50 01             	lea    0x1(%eax),%edx
 8048a5e:	88 15 60 c4 04 08    	mov    %dl,0x804c460
 8048a64:	0f b6 c0             	movzbl %al,%eax
 8048a67:	c6 80 60 c3 04 08 01 	movb   $0x1,0x804c360(%eax)
 8048a6e:	90                   	nop
 8048a6f:	5d                   	pop    %ebp
 8048a70:	c3                   	ret    

08048a71 <play_x02>:
 8048a71:	55                   	push   %ebp
 8048a72:	89 e5                	mov    %esp,%ebp
 8048a74:	0f b6 05 60 c4 04 08 	movzbl 0x804c460,%eax
 8048a7b:	8d 50 01             	lea    0x1(%eax),%edx
 8048a7e:	88 15 60 c4 04 08    	mov    %dl,0x804c460
 8048a84:	0f b6 c0             	movzbl %al,%eax
 8048a87:	c6 80 60 c3 04 08 02 	movb   $0x2,0x804c360(%eax)
 8048a8e:	90                   	nop
 8048a8f:	5d                   	pop    %ebp
 8048a90:	c3                   	ret    

08048a91 <play_x03>:
 8048a91:	55                   	push   %ebp
 8048a92:	89 e5                	mov    %esp,%ebp
 8048a94:	0f b6 05 60 c4 04 08 	movzbl 0x804c460,%eax
 8048a9b:	8d 50 01             	lea    0x1(%eax),%edx
 8048a9e:	88 15 60 c4 04 08    	mov    %dl,0x804c460
 8048aa4:	0f b6 c0             	movzbl %al,%eax
 8048aa7:	c6 80 60 c3 04 08 03 	movb   $0x3,0x804c360(%eax)
 8048aae:	90                   	nop
 8048aaf:	5d                   	pop    %ebp
 8048ab0:	c3                   	ret    

08048ab1 <play_x04>:
 8048ab1:	55                   	push   %ebp
 8048ab2:	89 e5                	mov    %esp,%ebp
 8048ab4:	0f b6 05 60 c4 04 08 	movzbl 0x804c460,%eax
 8048abb:	8d 50 01             	lea    0x1(%eax),%edx
 8048abe:	88 15 60 c4 04 08    	mov    %dl,0x804c460
 8048ac4:	0f b6 c0             	movzbl %al,%eax
 8048ac7:	c6 80 60 c3 04 08 04 	movb   $0x4,0x804c360(%eax)
 8048ace:	90                   	nop
 8048acf:	5d                   	pop    %ebp
 8048ad0:	c3                   	ret    

08048ad1 <play_x05>:
 8048ad1:	55                   	push   %ebp
 8048ad2:	89 e5                	mov    %esp,%ebp
 8048ad4:	0f b6 05 60 c4 04 08 	movzbl 0x804c460,%eax
 8048adb:	8d 50 01             	lea    0x1(%eax),%edx
 8048ade:	88 15 60 c4 04 08    	mov    %dl,0x804c460
 8048ae4:	0f b6 c0             	movzbl %al,%eax
 8048ae7:	c6 80 60 c3 04 08 05 	movb   $0x5,0x804c360(%eax)
 8048aee:	90                   	nop
 8048aef:	5d                   	pop    %ebp
 8048af0:	c3                   	ret    

08048af1 <play_x06>:
 8048af1:	55                   	push   %ebp
 8048af2:	89 e5                	mov    %esp,%ebp
 8048af4:	0f b6 05 60 c4 04 08 	movzbl 0x804c460,%eax
 8048afb:	8d 50 01             	lea    0x1(%eax),%edx
 8048afe:	88 15 60 c4 04 08    	mov    %dl,0x804c460
 8048b04:	0f b6 c0             	movzbl %al,%eax
 8048b07:	c6 80 60 c3 04 08 06 	movb   $0x6,0x804c360(%eax)
 8048b0e:	90                   	nop
 8048b0f:	5d                   	pop    %ebp
 8048b10:	c3                   	ret    

08048b11 <play_x07>:
 8048b11:	55                   	push   %ebp
 8048b12:	89 e5                	mov    %esp,%ebp
 8048b14:	0f b6 05 60 c4 04 08 	movzbl 0x804c460,%eax
 8048b1b:	8d 50 01             	lea    0x1(%eax),%edx
 8048b1e:	88 15 60 c4 04 08    	mov    %dl,0x804c460
 8048b24:	0f b6 c0             	movzbl %al,%eax
 8048b27:	c6 80 60 c3 04 08 07 	movb   $0x7,0x804c360(%eax)
 8048b2e:	90                   	nop
 8048b2f:	5d                   	pop    %ebp
 8048b30:	c3                   	ret    

08048b31 <play_x08>:
 8048b31:	55                   	push   %ebp
 8048b32:	89 e5                	mov    %esp,%ebp
 8048b34:	0f b6 05 60 c4 04 08 	movzbl 0x804c460,%eax
 8048b3b:	8d 50 01             	lea    0x1(%eax),%edx
 8048b3e:	88 15 60 c4 04 08    	mov    %dl,0x804c460
 8048b44:	0f b6 c0             	movzbl %al,%eax
 8048b47:	c6 80 60 c3 04 08 08 	movb   $0x8,0x804c360(%eax)
 8048b4e:	90                   	nop
 8048b4f:	5d                   	pop    %ebp
 8048b50:	c3                   	ret    

08048b51 <play_x09>:
 8048b51:	55                   	push   %ebp
 8048b52:	89 e5                	mov    %esp,%ebp
 8048b54:	0f b6 05 60 c4 04 08 	movzbl 0x804c460,%eax
 8048b5b:	8d 50 01             	lea    0x1(%eax),%edx
 8048b5e:	88 15 60 c4 04 08    	mov    %dl,0x804c460
 8048b64:	0f b6 c0             	movzbl %al,%eax
 8048b67:	c6 80 60 c3 04 08 09 	movb   $0x9,0x804c360(%eax)
 8048b6e:	90                   	nop
 8048b6f:	5d                   	pop    %ebp
 8048b70:	c3                   	ret    

08048b71 <play_x0a>:
 8048b71:	55                   	push   %ebp
 8048b72:	89 e5                	mov    %esp,%ebp
 8048b74:	0f b6 05 60 c4 04 08 	movzbl 0x804c460,%eax
 8048b7b:	8d 50 01             	lea    0x1(%eax),%edx
 8048b7e:	88 15 60 c4 04 08    	mov    %dl,0x804c460
 8048b84:	0f b6 c0             	movzbl %al,%eax
 8048b87:	c6 80 60 c3 04 08 0a 	movb   $0xa,0x804c360(%eax)
 8048b8e:	90                   	nop
 8048b8f:	5d                   	pop    %ebp
 8048b90:	c3                   	ret    

08048b91 <play_x0b>:
 8048b91:	55                   	push   %ebp
 8048b92:	89 e5                	mov    %esp,%ebp
 8048b94:	0f b6 05 60 c4 04 08 	movzbl 0x804c460,%eax
 8048b9b:	8d 50 01             	lea    0x1(%eax),%edx
 8048b9e:	88 15 60 c4 04 08    	mov    %dl,0x804c460
 8048ba4:	0f b6 c0             	movzbl %al,%eax
 8048ba7:	c6 80 60 c3 04 08 0b 	movb   $0xb,0x804c360(%eax)
 8048bae:	90                   	nop
 8048baf:	5d                   	pop    %ebp
 8048bb0:	c3                   	ret    

08048bb1 <play_x0c>:
 8048bb1:	55                   	push   %ebp
 8048bb2:	89 e5                	mov    %esp,%ebp
 8048bb4:	0f b6 05 60 c4 04 08 	movzbl 0x804c460,%eax
 8048bbb:	8d 50 01             	lea    0x1(%eax),%edx
 8048bbe:	88 15 60 c4 04 08    	mov    %dl,0x804c460
 8048bc4:	0f b6 c0             	movzbl %al,%eax
 8048bc7:	c6 80 60 c3 04 08 0c 	movb   $0xc,0x804c360(%eax)
 8048bce:	90                   	nop
 8048bcf:	5d                   	pop    %ebp
 8048bd0:	c3                   	ret    

08048bd1 <play_x0d>:
 8048bd1:	55                   	push   %ebp
 8048bd2:	89 e5                	mov    %esp,%ebp
 8048bd4:	0f b6 05 60 c4 04 08 	movzbl 0x804c460,%eax
 8048bdb:	8d 50 01             	lea    0x1(%eax),%edx
 8048bde:	88 15 60 c4 04 08    	mov    %dl,0x804c460
 8048be4:	0f b6 c0             	movzbl %al,%eax
 8048be7:	c6 80 60 c3 04 08 0d 	movb   $0xd,0x804c360(%eax)
 8048bee:	90                   	nop
 8048bef:	5d                   	pop    %ebp
 8048bf0:	c3                   	ret    

08048bf1 <play_x0e>:
 8048bf1:	55                   	push   %ebp
 8048bf2:	89 e5                	mov    %esp,%ebp
 8048bf4:	0f b6 05 60 c4 04 08 	movzbl 0x804c460,%eax
 8048bfb:	8d 50 01             	lea    0x1(%eax),%edx
 8048bfe:	88 15 60 c4 04 08    	mov    %dl,0x804c460
 8048c04:	0f b6 c0             	movzbl %al,%eax
 8048c07:	c6 80 60 c3 04 08 0e 	movb   $0xe,0x804c360(%eax)
 8048c0e:	90                   	nop
 8048c0f:	5d                   	pop    %ebp
 8048c10:	c3                   	ret    

08048c11 <play_x0f>:
 8048c11:	55                   	push   %ebp
 8048c12:	89 e5                	mov    %esp,%ebp
 8048c14:	0f b6 05 60 c4 04 08 	movzbl 0x804c460,%eax
 8048c1b:	8d 50 01             	lea    0x1(%eax),%edx
 8048c1e:	88 15 60 c4 04 08    	mov    %dl,0x804c460
 8048c24:	0f b6 c0             	movzbl %al,%eax
 8048c27:	c6 80 60 c3 04 08 0f 	movb   $0xf,0x804c360(%eax)
 8048c2e:	90                   	nop
 8048c2f:	5d                   	pop    %ebp
 8048c30:	c3                   	ret    

08048c31 <play_x10>:
 8048c31:	55                   	push   %ebp
 8048c32:	89 e5                	mov    %esp,%ebp
 8048c34:	0f b6 05 60 c4 04 08 	movzbl 0x804c460,%eax
 8048c3b:	8d 50 01             	lea    0x1(%eax),%edx
 8048c3e:	88 15 60 c4 04 08    	mov    %dl,0x804c460
 8048c44:	0f b6 c0             	movzbl %al,%eax
 8048c47:	c6 80 60 c3 04 08 10 	movb   $0x10,0x804c360(%eax)
 8048c4e:	90                   	nop
 8048c4f:	5d                   	pop    %ebp
 8048c50:	c3                   	ret    

08048c51 <play_x11>:
 8048c51:	55                   	push   %ebp
 8048c52:	89 e5                	mov    %esp,%ebp
 8048c54:	0f b6 05 60 c4 04 08 	movzbl 0x804c460,%eax
 8048c5b:	8d 50 01             	lea    0x1(%eax),%edx
 8048c5e:	88 15 60 c4 04 08    	mov    %dl,0x804c460
 8048c64:	0f b6 c0             	movzbl %al,%eax
 8048c67:	c6 80 60 c3 04 08 11 	movb   $0x11,0x804c360(%eax)
 8048c6e:	90                   	nop
 8048c6f:	5d                   	pop    %ebp
 8048c70:	c3                   	ret    

08048c71 <play_x12>:
 8048c71:	55                   	push   %ebp
 8048c72:	89 e5                	mov    %esp,%ebp
 8048c74:	0f b6 05 60 c4 04 08 	movzbl 0x804c460,%eax
 8048c7b:	8d 50 01             	lea    0x1(%eax),%edx
 8048c7e:	88 15 60 c4 04 08    	mov    %dl,0x804c460
 8048c84:	0f b6 c0             	movzbl %al,%eax
 8048c87:	c6 80 60 c3 04 08 12 	movb   $0x12,0x804c360(%eax)
 8048c8e:	90                   	nop
 8048c8f:	5d                   	pop    %ebp
 8048c90:	c3                   	ret    

08048c91 <play_x13>:
 8048c91:	55                   	push   %ebp
 8048c92:	89 e5                	mov    %esp,%ebp
 8048c94:	0f b6 05 60 c4 04 08 	movzbl 0x804c460,%eax
 8048c9b:	8d 50 01             	lea    0x1(%eax),%edx
 8048c9e:	88 15 60 c4 04 08    	mov    %dl,0x804c460
 8048ca4:	0f b6 c0             	movzbl %al,%eax
 8048ca7:	c6 80 60 c3 04 08 13 	movb   $0x13,0x804c360(%eax)
 8048cae:	90                   	nop
 8048caf:	5d                   	pop    %ebp
 8048cb0:	c3                   	ret    

08048cb1 <play_x14>:
 8048cb1:	55                   	push   %ebp
 8048cb2:	89 e5                	mov    %esp,%ebp
 8048cb4:	0f b6 05 60 c4 04 08 	movzbl 0x804c460,%eax
 8048cbb:	8d 50 01             	lea    0x1(%eax),%edx
 8048cbe:	88 15 60 c4 04 08    	mov    %dl,0x804c460
 8048cc4:	0f b6 c0             	movzbl %al,%eax
 8048cc7:	c6 80 60 c3 04 08 14 	movb   $0x14,0x804c360(%eax)
 8048cce:	90                   	nop
 8048ccf:	5d                   	pop    %ebp
 8048cd0:	c3                   	ret    

08048cd1 <play_x15>:
 8048cd1:	55                   	push   %ebp
 8048cd2:	89 e5                	mov    %esp,%ebp
 8048cd4:	0f b6 05 60 c4 04 08 	movzbl 0x804c460,%eax
 8048cdb:	8d 50 01             	lea    0x1(%eax),%edx
 8048cde:	88 15 60 c4 04 08    	mov    %dl,0x804c460
 8048ce4:	0f b6 c0             	movzbl %al,%eax
 8048ce7:	c6 80 60 c3 04 08 15 	movb   $0x15,0x804c360(%eax)
 8048cee:	90                   	nop
 8048cef:	5d                   	pop    %ebp
 8048cf0:	c3                   	ret    

08048cf1 <play_x16>:
 8048cf1:	55                   	push   %ebp
 8048cf2:	89 e5                	mov    %esp,%ebp
 8048cf4:	0f b6 05 60 c4 04 08 	movzbl 0x804c460,%eax
 8048cfb:	8d 50 01             	lea    0x1(%eax),%edx
 8048cfe:	88 15 60 c4 04 08    	mov    %dl,0x804c460
 8048d04:	0f b6 c0             	movzbl %al,%eax
 8048d07:	c6 80 60 c3 04 08 16 	movb   $0x16,0x804c360(%eax)
 8048d0e:	90                   	nop
 8048d0f:	5d                   	pop    %ebp
 8048d10:	c3                   	ret    

08048d11 <play_x17>:
 8048d11:	55                   	push   %ebp
 8048d12:	89 e5                	mov    %esp,%ebp
 8048d14:	0f b6 05 60 c4 04 08 	movzbl 0x804c460,%eax
 8048d1b:	8d 50 01             	lea    0x1(%eax),%edx
 8048d1e:	88 15 60 c4 04 08    	mov    %dl,0x804c460
 8048d24:	0f b6 c0             	movzbl %al,%eax
 8048d27:	c6 80 60 c3 04 08 17 	movb   $0x17,0x804c360(%eax)
 8048d2e:	90                   	nop
 8048d2f:	5d                   	pop    %ebp
 8048d30:	c3                   	ret    

08048d31 <play_x18>:
 8048d31:	55                   	push   %ebp
 8048d32:	89 e5                	mov    %esp,%ebp
 8048d34:	0f b6 05 60 c4 04 08 	movzbl 0x804c460,%eax
 8048d3b:	8d 50 01             	lea    0x1(%eax),%edx
 8048d3e:	88 15 60 c4 04 08    	mov    %dl,0x804c460
 8048d44:	0f b6 c0             	movzbl %al,%eax
 8048d47:	c6 80 60 c3 04 08 18 	movb   $0x18,0x804c360(%eax)
 8048d4e:	90                   	nop
 8048d4f:	5d                   	pop    %ebp
 8048d50:	c3                   	ret    

08048d51 <play_x19>:
 8048d51:	55                   	push   %ebp
 8048d52:	89 e5                	mov    %esp,%ebp
 8048d54:	0f b6 05 60 c4 04 08 	movzbl 0x804c460,%eax
 8048d5b:	8d 50 01             	lea    0x1(%eax),%edx
 8048d5e:	88 15 60 c4 04 08    	mov    %dl,0x804c460
 8048d64:	0f b6 c0             	movzbl %al,%eax
 8048d67:	c6 80 60 c3 04 08 19 	movb   $0x19,0x804c360(%eax)
 8048d6e:	90                   	nop
 8048d6f:	5d                   	pop    %ebp
 8048d70:	c3                   	ret    

08048d71 <play_x1a>:
 8048d71:	55                   	push   %ebp
 8048d72:	89 e5                	mov    %esp,%ebp
 8048d74:	0f b6 05 60 c4 04 08 	movzbl 0x804c460,%eax
 8048d7b:	8d 50 01             	lea    0x1(%eax),%edx
 8048d7e:	88 15 60 c4 04 08    	mov    %dl,0x804c460
 8048d84:	0f b6 c0             	movzbl %al,%eax
 8048d87:	c6 80 60 c3 04 08 1a 	movb   $0x1a,0x804c360(%eax)
 8048d8e:	90                   	nop
 8048d8f:	5d                   	pop    %ebp
 8048d90:	c3                   	ret    

08048d91 <play_x1b>:
 8048d91:	55                   	push   %ebp
 8048d92:	89 e5                	mov    %esp,%ebp
 8048d94:	0f b6 05 60 c4 04 08 	movzbl 0x804c460,%eax
 8048d9b:	8d 50 01             	lea    0x1(%eax),%edx
 8048d9e:	88 15 60 c4 04 08    	mov    %dl,0x804c460
 8048da4:	0f b6 c0             	movzbl %al,%eax
 8048da7:	c6 80 60 c3 04 08 1b 	movb   $0x1b,0x804c360(%eax)
 8048dae:	90                   	nop
 8048daf:	5d                   	pop    %ebp
 8048db0:	c3                   	ret    

08048db1 <play_x1c>:
 8048db1:	55                   	push   %ebp
 8048db2:	89 e5                	mov    %esp,%ebp
 8048db4:	0f b6 05 60 c4 04 08 	movzbl 0x804c460,%eax
 8048dbb:	8d 50 01             	lea    0x1(%eax),%edx
 8048dbe:	88 15 60 c4 04 08    	mov    %dl,0x804c460
 8048dc4:	0f b6 c0             	movzbl %al,%eax
 8048dc7:	c6 80 60 c3 04 08 1c 	movb   $0x1c,0x804c360(%eax)
 8048dce:	90                   	nop
 8048dcf:	5d                   	pop    %ebp
 8048dd0:	c3                   	ret    

08048dd1 <play_x1d>:
 8048dd1:	55                   	push   %ebp
 8048dd2:	89 e5                	mov    %esp,%ebp
 8048dd4:	0f b6 05 60 c4 04 08 	movzbl 0x804c460,%eax
 8048ddb:	8d 50 01             	lea    0x1(%eax),%edx
 8048dde:	88 15 60 c4 04 08    	mov    %dl,0x804c460
 8048de4:	0f b6 c0             	movzbl %al,%eax
 8048de7:	c6 80 60 c3 04 08 1d 	movb   $0x1d,0x804c360(%eax)
 8048dee:	90                   	nop
 8048def:	5d                   	pop    %ebp
 8048df0:	c3                   	ret    

08048df1 <play_x1e>:
 8048df1:	55                   	push   %ebp
 8048df2:	89 e5                	mov    %esp,%ebp
 8048df4:	0f b6 05 60 c4 04 08 	movzbl 0x804c460,%eax
 8048dfb:	8d 50 01             	lea    0x1(%eax),%edx
 8048dfe:	88 15 60 c4 04 08    	mov    %dl,0x804c460
 8048e04:	0f b6 c0             	movzbl %al,%eax
 8048e07:	c6 80 60 c3 04 08 1e 	movb   $0x1e,0x804c360(%eax)
 8048e0e:	90                   	nop
 8048e0f:	5d                   	pop    %ebp
 8048e10:	c3                   	ret    

08048e11 <play_x1f>:
 8048e11:	55                   	push   %ebp
 8048e12:	89 e5                	mov    %esp,%ebp
 8048e14:	0f b6 05 60 c4 04 08 	movzbl 0x804c460,%eax
 8048e1b:	8d 50 01             	lea    0x1(%eax),%edx
 8048e1e:	88 15 60 c4 04 08    	mov    %dl,0x804c460
 8048e24:	0f b6 c0             	movzbl %al,%eax
 8048e27:	c6 80 60 c3 04 08 1f 	movb   $0x1f,0x804c360(%eax)
 8048e2e:	90                   	nop
 8048e2f:	5d                   	pop    %ebp
 8048e30:	c3                   	ret    

08048e31 <play_x20>:
 8048e31:	55                   	push   %ebp
 8048e32:	89 e5                	mov    %esp,%ebp
 8048e34:	0f b6 05 60 c4 04 08 	movzbl 0x804c460,%eax
 8048e3b:	8d 50 01             	lea    0x1(%eax),%edx
 8048e3e:	88 15 60 c4 04 08    	mov    %dl,0x804c460
 8048e44:	0f b6 c0             	movzbl %al,%eax
 8048e47:	c6 80 60 c3 04 08 20 	movb   $0x20,0x804c360(%eax)
 8048e4e:	90                   	nop
 8048e4f:	5d                   	pop    %ebp
 8048e50:	c3                   	ret    

08048e51 <play_x21>:
 8048e51:	55                   	push   %ebp
 8048e52:	89 e5                	mov    %esp,%ebp
 8048e54:	0f b6 05 60 c4 04 08 	movzbl 0x804c460,%eax
 8048e5b:	8d 50 01             	lea    0x1(%eax),%edx
 8048e5e:	88 15 60 c4 04 08    	mov    %dl,0x804c460
 8048e64:	0f b6 c0             	movzbl %al,%eax
 8048e67:	c6 80 60 c3 04 08 21 	movb   $0x21,0x804c360(%eax)
 8048e6e:	90                   	nop
 8048e6f:	5d                   	pop    %ebp
 8048e70:	c3                   	ret    

08048e71 <play_x22>:
 8048e71:	55                   	push   %ebp
 8048e72:	89 e5                	mov    %esp,%ebp
 8048e74:	0f b6 05 60 c4 04 08 	movzbl 0x804c460,%eax
 8048e7b:	8d 50 01             	lea    0x1(%eax),%edx
 8048e7e:	88 15 60 c4 04 08    	mov    %dl,0x804c460
 8048e84:	0f b6 c0             	movzbl %al,%eax
 8048e87:	c6 80 60 c3 04 08 22 	movb   $0x22,0x804c360(%eax)
 8048e8e:	90                   	nop
 8048e8f:	5d                   	pop    %ebp
 8048e90:	c3                   	ret    

08048e91 <play_x23>:
 8048e91:	55                   	push   %ebp
 8048e92:	89 e5                	mov    %esp,%ebp
 8048e94:	0f b6 05 60 c4 04 08 	movzbl 0x804c460,%eax
 8048e9b:	8d 50 01             	lea    0x1(%eax),%edx
 8048e9e:	88 15 60 c4 04 08    	mov    %dl,0x804c460
 8048ea4:	0f b6 c0             	movzbl %al,%eax
 8048ea7:	c6 80 60 c3 04 08 23 	movb   $0x23,0x804c360(%eax)
 8048eae:	90                   	nop
 8048eaf:	5d                   	pop    %ebp
 8048eb0:	c3                   	ret    

08048eb1 <play_x24>:
 8048eb1:	55                   	push   %ebp
 8048eb2:	89 e5                	mov    %esp,%ebp
 8048eb4:	0f b6 05 60 c4 04 08 	movzbl 0x804c460,%eax
 8048ebb:	8d 50 01             	lea    0x1(%eax),%edx
 8048ebe:	88 15 60 c4 04 08    	mov    %dl,0x804c460
 8048ec4:	0f b6 c0             	movzbl %al,%eax
 8048ec7:	c6 80 60 c3 04 08 24 	movb   $0x24,0x804c360(%eax)
 8048ece:	90                   	nop
 8048ecf:	5d                   	pop    %ebp
 8048ed0:	c3                   	ret    

08048ed1 <play_x25>:
 8048ed1:	55                   	push   %ebp
 8048ed2:	89 e5                	mov    %esp,%ebp
 8048ed4:	0f b6 05 60 c4 04 08 	movzbl 0x804c460,%eax
 8048edb:	8d 50 01             	lea    0x1(%eax),%edx
 8048ede:	88 15 60 c4 04 08    	mov    %dl,0x804c460
 8048ee4:	0f b6 c0             	movzbl %al,%eax
 8048ee7:	c6 80 60 c3 04 08 25 	movb   $0x25,0x804c360(%eax)
 8048eee:	90                   	nop
 8048eef:	5d                   	pop    %ebp
 8048ef0:	c3                   	ret    

08048ef1 <play_x26>:
 8048ef1:	55                   	push   %ebp
 8048ef2:	89 e5                	mov    %esp,%ebp
 8048ef4:	0f b6 05 60 c4 04 08 	movzbl 0x804c460,%eax
 8048efb:	8d 50 01             	lea    0x1(%eax),%edx
 8048efe:	88 15 60 c4 04 08    	mov    %dl,0x804c460
 8048f04:	0f b6 c0             	movzbl %al,%eax
 8048f07:	c6 80 60 c3 04 08 26 	movb   $0x26,0x804c360(%eax)
 8048f0e:	90                   	nop
 8048f0f:	5d                   	pop    %ebp
 8048f10:	c3                   	ret    

08048f11 <play_x27>:
 8048f11:	55                   	push   %ebp
 8048f12:	89 e5                	mov    %esp,%ebp
 8048f14:	0f b6 05 60 c4 04 08 	movzbl 0x804c460,%eax
 8048f1b:	8d 50 01             	lea    0x1(%eax),%edx
 8048f1e:	88 15 60 c4 04 08    	mov    %dl,0x804c460
 8048f24:	0f b6 c0             	movzbl %al,%eax
 8048f27:	c6 80 60 c3 04 08 27 	movb   $0x27,0x804c360(%eax)
 8048f2e:	90                   	nop
 8048f2f:	5d                   	pop    %ebp
 8048f30:	c3                   	ret    

08048f31 <play_x28>:
 8048f31:	55                   	push   %ebp
 8048f32:	89 e5                	mov    %esp,%ebp
 8048f34:	0f b6 05 60 c4 04 08 	movzbl 0x804c460,%eax
 8048f3b:	8d 50 01             	lea    0x1(%eax),%edx
 8048f3e:	88 15 60 c4 04 08    	mov    %dl,0x804c460
 8048f44:	0f b6 c0             	movzbl %al,%eax
 8048f47:	c6 80 60 c3 04 08 28 	movb   $0x28,0x804c360(%eax)
 8048f4e:	90                   	nop
 8048f4f:	5d                   	pop    %ebp
 8048f50:	c3                   	ret    

08048f51 <play_x29>:
 8048f51:	55                   	push   %ebp
 8048f52:	89 e5                	mov    %esp,%ebp
 8048f54:	0f b6 05 60 c4 04 08 	movzbl 0x804c460,%eax
 8048f5b:	8d 50 01             	lea    0x1(%eax),%edx
 8048f5e:	88 15 60 c4 04 08    	mov    %dl,0x804c460
 8048f64:	0f b6 c0             	movzbl %al,%eax
 8048f67:	c6 80 60 c3 04 08 29 	movb   $0x29,0x804c360(%eax)
 8048f6e:	90                   	nop
 8048f6f:	5d                   	pop    %ebp
 8048f70:	c3                   	ret    

08048f71 <play_x2a>:
 8048f71:	55                   	push   %ebp
 8048f72:	89 e5                	mov    %esp,%ebp
 8048f74:	0f b6 05 60 c4 04 08 	movzbl 0x804c460,%eax
 8048f7b:	8d 50 01             	lea    0x1(%eax),%edx
 8048f7e:	88 15 60 c4 04 08    	mov    %dl,0x804c460
 8048f84:	0f b6 c0             	movzbl %al,%eax
 8048f87:	c6 80 60 c3 04 08 2a 	movb   $0x2a,0x804c360(%eax)
 8048f8e:	90                   	nop
 8048f8f:	5d                   	pop    %ebp
 8048f90:	c3                   	ret    

08048f91 <play_x2b>:
 8048f91:	55                   	push   %ebp
 8048f92:	89 e5                	mov    %esp,%ebp
 8048f94:	0f b6 05 60 c4 04 08 	movzbl 0x804c460,%eax
 8048f9b:	8d 50 01             	lea    0x1(%eax),%edx
 8048f9e:	88 15 60 c4 04 08    	mov    %dl,0x804c460
 8048fa4:	0f b6 c0             	movzbl %al,%eax
 8048fa7:	c6 80 60 c3 04 08 2b 	movb   $0x2b,0x804c360(%eax)
 8048fae:	90                   	nop
 8048faf:	5d                   	pop    %ebp
 8048fb0:	c3                   	ret    

08048fb1 <play_x2c>:
 8048fb1:	55                   	push   %ebp
 8048fb2:	89 e5                	mov    %esp,%ebp
 8048fb4:	0f b6 05 60 c4 04 08 	movzbl 0x804c460,%eax
 8048fbb:	8d 50 01             	lea    0x1(%eax),%edx
 8048fbe:	88 15 60 c4 04 08    	mov    %dl,0x804c460
 8048fc4:	0f b6 c0             	movzbl %al,%eax
 8048fc7:	c6 80 60 c3 04 08 2c 	movb   $0x2c,0x804c360(%eax)
 8048fce:	90                   	nop
 8048fcf:	5d                   	pop    %ebp
 8048fd0:	c3                   	ret    

08048fd1 <play_x2d>:
 8048fd1:	55                   	push   %ebp
 8048fd2:	89 e5                	mov    %esp,%ebp
 8048fd4:	0f b6 05 60 c4 04 08 	movzbl 0x804c460,%eax
 8048fdb:	8d 50 01             	lea    0x1(%eax),%edx
 8048fde:	88 15 60 c4 04 08    	mov    %dl,0x804c460
 8048fe4:	0f b6 c0             	movzbl %al,%eax
 8048fe7:	c6 80 60 c3 04 08 2d 	movb   $0x2d,0x804c360(%eax)
 8048fee:	90                   	nop
 8048fef:	5d                   	pop    %ebp
 8048ff0:	c3                   	ret    

08048ff1 <play_x2e>:
 8048ff1:	55                   	push   %ebp
 8048ff2:	89 e5                	mov    %esp,%ebp
 8048ff4:	0f b6 05 60 c4 04 08 	movzbl 0x804c460,%eax
 8048ffb:	8d 50 01             	lea    0x1(%eax),%edx
 8048ffe:	88 15 60 c4 04 08    	mov    %dl,0x804c460
 8049004:	0f b6 c0             	movzbl %al,%eax
 8049007:	c6 80 60 c3 04 08 2e 	movb   $0x2e,0x804c360(%eax)
 804900e:	90                   	nop
 804900f:	5d                   	pop    %ebp
 8049010:	c3                   	ret    

08049011 <play_x2f>:
 8049011:	55                   	push   %ebp
 8049012:	89 e5                	mov    %esp,%ebp
 8049014:	0f b6 05 60 c4 04 08 	movzbl 0x804c460,%eax
 804901b:	8d 50 01             	lea    0x1(%eax),%edx
 804901e:	88 15 60 c4 04 08    	mov    %dl,0x804c460
 8049024:	0f b6 c0             	movzbl %al,%eax
 8049027:	c6 80 60 c3 04 08 2f 	movb   $0x2f,0x804c360(%eax)
 804902e:	90                   	nop
 804902f:	5d                   	pop    %ebp
 8049030:	c3                   	ret    

08049031 <play_x30>:
 8049031:	55                   	push   %ebp
 8049032:	89 e5                	mov    %esp,%ebp
 8049034:	0f b6 05 60 c4 04 08 	movzbl 0x804c460,%eax
 804903b:	8d 50 01             	lea    0x1(%eax),%edx
 804903e:	88 15 60 c4 04 08    	mov    %dl,0x804c460
 8049044:	0f b6 c0             	movzbl %al,%eax
 8049047:	c6 80 60 c3 04 08 30 	movb   $0x30,0x804c360(%eax)
 804904e:	90                   	nop
 804904f:	5d                   	pop    %ebp
 8049050:	c3                   	ret    

08049051 <play_x31>:
 8049051:	55                   	push   %ebp
 8049052:	89 e5                	mov    %esp,%ebp
 8049054:	0f b6 05 60 c4 04 08 	movzbl 0x804c460,%eax
 804905b:	8d 50 01             	lea    0x1(%eax),%edx
 804905e:	88 15 60 c4 04 08    	mov    %dl,0x804c460
 8049064:	0f b6 c0             	movzbl %al,%eax
 8049067:	c6 80 60 c3 04 08 31 	movb   $0x31,0x804c360(%eax)
 804906e:	90                   	nop
 804906f:	5d                   	pop    %ebp
 8049070:	c3                   	ret    

08049071 <play_x32>:
 8049071:	55                   	push   %ebp
 8049072:	89 e5                	mov    %esp,%ebp
 8049074:	0f b6 05 60 c4 04 08 	movzbl 0x804c460,%eax
 804907b:	8d 50 01             	lea    0x1(%eax),%edx
 804907e:	88 15 60 c4 04 08    	mov    %dl,0x804c460
 8049084:	0f b6 c0             	movzbl %al,%eax
 8049087:	c6 80 60 c3 04 08 32 	movb   $0x32,0x804c360(%eax)
 804908e:	90                   	nop
 804908f:	5d                   	pop    %ebp
 8049090:	c3                   	ret    

08049091 <play_x33>:
 8049091:	55                   	push   %ebp
 8049092:	89 e5                	mov    %esp,%ebp
 8049094:	0f b6 05 60 c4 04 08 	movzbl 0x804c460,%eax
 804909b:	8d 50 01             	lea    0x1(%eax),%edx
 804909e:	88 15 60 c4 04 08    	mov    %dl,0x804c460
 80490a4:	0f b6 c0             	movzbl %al,%eax
 80490a7:	c6 80 60 c3 04 08 33 	movb   $0x33,0x804c360(%eax)
 80490ae:	90                   	nop
 80490af:	5d                   	pop    %ebp
 80490b0:	c3                   	ret    

080490b1 <play_x34>:
 80490b1:	55                   	push   %ebp
 80490b2:	89 e5                	mov    %esp,%ebp
 80490b4:	0f b6 05 60 c4 04 08 	movzbl 0x804c460,%eax
 80490bb:	8d 50 01             	lea    0x1(%eax),%edx
 80490be:	88 15 60 c4 04 08    	mov    %dl,0x804c460
 80490c4:	0f b6 c0             	movzbl %al,%eax
 80490c7:	c6 80 60 c3 04 08 34 	movb   $0x34,0x804c360(%eax)
 80490ce:	90                   	nop
 80490cf:	5d                   	pop    %ebp
 80490d0:	c3                   	ret    

080490d1 <play_x35>:
 80490d1:	55                   	push   %ebp
 80490d2:	89 e5                	mov    %esp,%ebp
 80490d4:	0f b6 05 60 c4 04 08 	movzbl 0x804c460,%eax
 80490db:	8d 50 01             	lea    0x1(%eax),%edx
 80490de:	88 15 60 c4 04 08    	mov    %dl,0x804c460
 80490e4:	0f b6 c0             	movzbl %al,%eax
 80490e7:	c6 80 60 c3 04 08 35 	movb   $0x35,0x804c360(%eax)
 80490ee:	90                   	nop
 80490ef:	5d                   	pop    %ebp
 80490f0:	c3                   	ret    

080490f1 <play_x36>:
 80490f1:	55                   	push   %ebp
 80490f2:	89 e5                	mov    %esp,%ebp
 80490f4:	0f b6 05 60 c4 04 08 	movzbl 0x804c460,%eax
 80490fb:	8d 50 01             	lea    0x1(%eax),%edx
 80490fe:	88 15 60 c4 04 08    	mov    %dl,0x804c460
 8049104:	0f b6 c0             	movzbl %al,%eax
 8049107:	c6 80 60 c3 04 08 36 	movb   $0x36,0x804c360(%eax)
 804910e:	90                   	nop
 804910f:	5d                   	pop    %ebp
 8049110:	c3                   	ret    

08049111 <play_x37>:
 8049111:	55                   	push   %ebp
 8049112:	89 e5                	mov    %esp,%ebp
 8049114:	0f b6 05 60 c4 04 08 	movzbl 0x804c460,%eax
 804911b:	8d 50 01             	lea    0x1(%eax),%edx
 804911e:	88 15 60 c4 04 08    	mov    %dl,0x804c460
 8049124:	0f b6 c0             	movzbl %al,%eax
 8049127:	c6 80 60 c3 04 08 37 	movb   $0x37,0x804c360(%eax)
 804912e:	90                   	nop
 804912f:	5d                   	pop    %ebp
 8049130:	c3                   	ret    

08049131 <play_x38>:
 8049131:	55                   	push   %ebp
 8049132:	89 e5                	mov    %esp,%ebp
 8049134:	0f b6 05 60 c4 04 08 	movzbl 0x804c460,%eax
 804913b:	8d 50 01             	lea    0x1(%eax),%edx
 804913e:	88 15 60 c4 04 08    	mov    %dl,0x804c460
 8049144:	0f b6 c0             	movzbl %al,%eax
 8049147:	c6 80 60 c3 04 08 38 	movb   $0x38,0x804c360(%eax)
 804914e:	90                   	nop
 804914f:	5d                   	pop    %ebp
 8049150:	c3                   	ret    

08049151 <play_x39>:
 8049151:	55                   	push   %ebp
 8049152:	89 e5                	mov    %esp,%ebp
 8049154:	0f b6 05 60 c4 04 08 	movzbl 0x804c460,%eax
 804915b:	8d 50 01             	lea    0x1(%eax),%edx
 804915e:	88 15 60 c4 04 08    	mov    %dl,0x804c460
 8049164:	0f b6 c0             	movzbl %al,%eax
 8049167:	c6 80 60 c3 04 08 39 	movb   $0x39,0x804c360(%eax)
 804916e:	90                   	nop
 804916f:	5d                   	pop    %ebp
 8049170:	c3                   	ret    

08049171 <play_x3a>:
 8049171:	55                   	push   %ebp
 8049172:	89 e5                	mov    %esp,%ebp
 8049174:	0f b6 05 60 c4 04 08 	movzbl 0x804c460,%eax
 804917b:	8d 50 01             	lea    0x1(%eax),%edx
 804917e:	88 15 60 c4 04 08    	mov    %dl,0x804c460
 8049184:	0f b6 c0             	movzbl %al,%eax
 8049187:	c6 80 60 c3 04 08 3a 	movb   $0x3a,0x804c360(%eax)
 804918e:	90                   	nop
 804918f:	5d                   	pop    %ebp
 8049190:	c3                   	ret    

08049191 <play_x3b>:
 8049191:	55                   	push   %ebp
 8049192:	89 e5                	mov    %esp,%ebp
 8049194:	0f b6 05 60 c4 04 08 	movzbl 0x804c460,%eax
 804919b:	8d 50 01             	lea    0x1(%eax),%edx
 804919e:	88 15 60 c4 04 08    	mov    %dl,0x804c460
 80491a4:	0f b6 c0             	movzbl %al,%eax
 80491a7:	c6 80 60 c3 04 08 3b 	movb   $0x3b,0x804c360(%eax)
 80491ae:	90                   	nop
 80491af:	5d                   	pop    %ebp
 80491b0:	c3                   	ret    

080491b1 <play_x3c>:
 80491b1:	55                   	push   %ebp
 80491b2:	89 e5                	mov    %esp,%ebp
 80491b4:	0f b6 05 60 c4 04 08 	movzbl 0x804c460,%eax
 80491bb:	8d 50 01             	lea    0x1(%eax),%edx
 80491be:	88 15 60 c4 04 08    	mov    %dl,0x804c460
 80491c4:	0f b6 c0             	movzbl %al,%eax
 80491c7:	c6 80 60 c3 04 08 3c 	movb   $0x3c,0x804c360(%eax)
 80491ce:	90                   	nop
 80491cf:	5d                   	pop    %ebp
 80491d0:	c3                   	ret    

080491d1 <play_x3d>:
 80491d1:	55                   	push   %ebp
 80491d2:	89 e5                	mov    %esp,%ebp
 80491d4:	0f b6 05 60 c4 04 08 	movzbl 0x804c460,%eax
 80491db:	8d 50 01             	lea    0x1(%eax),%edx
 80491de:	88 15 60 c4 04 08    	mov    %dl,0x804c460
 80491e4:	0f b6 c0             	movzbl %al,%eax
 80491e7:	c6 80 60 c3 04 08 3d 	movb   $0x3d,0x804c360(%eax)
 80491ee:	90                   	nop
 80491ef:	5d                   	pop    %ebp
 80491f0:	c3                   	ret    

080491f1 <play_x3e>:
 80491f1:	55                   	push   %ebp
 80491f2:	89 e5                	mov    %esp,%ebp
 80491f4:	0f b6 05 60 c4 04 08 	movzbl 0x804c460,%eax
 80491fb:	8d 50 01             	lea    0x1(%eax),%edx
 80491fe:	88 15 60 c4 04 08    	mov    %dl,0x804c460
 8049204:	0f b6 c0             	movzbl %al,%eax
 8049207:	c6 80 60 c3 04 08 3e 	movb   $0x3e,0x804c360(%eax)
 804920e:	90                   	nop
 804920f:	5d                   	pop    %ebp
 8049210:	c3                   	ret    

08049211 <play_x3f>:
 8049211:	55                   	push   %ebp
 8049212:	89 e5                	mov    %esp,%ebp
 8049214:	0f b6 05 60 c4 04 08 	movzbl 0x804c460,%eax
 804921b:	8d 50 01             	lea    0x1(%eax),%edx
 804921e:	88 15 60 c4 04 08    	mov    %dl,0x804c460
 8049224:	0f b6 c0             	movzbl %al,%eax
 8049227:	c6 80 60 c3 04 08 3f 	movb   $0x3f,0x804c360(%eax)
 804922e:	90                   	nop
 804922f:	5d                   	pop    %ebp
 8049230:	c3                   	ret    

08049231 <play_x40>:
 8049231:	55                   	push   %ebp
 8049232:	89 e5                	mov    %esp,%ebp
 8049234:	0f b6 05 60 c4 04 08 	movzbl 0x804c460,%eax
 804923b:	8d 50 01             	lea    0x1(%eax),%edx
 804923e:	88 15 60 c4 04 08    	mov    %dl,0x804c460
 8049244:	0f b6 c0             	movzbl %al,%eax
 8049247:	c6 80 60 c3 04 08 40 	movb   $0x40,0x804c360(%eax)
 804924e:	90                   	nop
 804924f:	5d                   	pop    %ebp
 8049250:	c3                   	ret    

08049251 <play_x41>:
 8049251:	55                   	push   %ebp
 8049252:	89 e5                	mov    %esp,%ebp
 8049254:	0f b6 05 60 c4 04 08 	movzbl 0x804c460,%eax
 804925b:	8d 50 01             	lea    0x1(%eax),%edx
 804925e:	88 15 60 c4 04 08    	mov    %dl,0x804c460
 8049264:	0f b6 c0             	movzbl %al,%eax
 8049267:	c6 80 60 c3 04 08 41 	movb   $0x41,0x804c360(%eax)
 804926e:	90                   	nop
 804926f:	5d                   	pop    %ebp
 8049270:	c3                   	ret    

08049271 <play_x42>:
 8049271:	55                   	push   %ebp
 8049272:	89 e5                	mov    %esp,%ebp
 8049274:	0f b6 05 60 c4 04 08 	movzbl 0x804c460,%eax
 804927b:	8d 50 01             	lea    0x1(%eax),%edx
 804927e:	88 15 60 c4 04 08    	mov    %dl,0x804c460
 8049284:	0f b6 c0             	movzbl %al,%eax
 8049287:	c6 80 60 c3 04 08 42 	movb   $0x42,0x804c360(%eax)
 804928e:	90                   	nop
 804928f:	5d                   	pop    %ebp
 8049290:	c3                   	ret    

08049291 <play_x43>:
 8049291:	55                   	push   %ebp
 8049292:	89 e5                	mov    %esp,%ebp
 8049294:	0f b6 05 60 c4 04 08 	movzbl 0x804c460,%eax
 804929b:	8d 50 01             	lea    0x1(%eax),%edx
 804929e:	88 15 60 c4 04 08    	mov    %dl,0x804c460
 80492a4:	0f b6 c0             	movzbl %al,%eax
 80492a7:	c6 80 60 c3 04 08 43 	movb   $0x43,0x804c360(%eax)
 80492ae:	90                   	nop
 80492af:	5d                   	pop    %ebp
 80492b0:	c3                   	ret    

080492b1 <play_x44>:
 80492b1:	55                   	push   %ebp
 80492b2:	89 e5                	mov    %esp,%ebp
 80492b4:	0f b6 05 60 c4 04 08 	movzbl 0x804c460,%eax
 80492bb:	8d 50 01             	lea    0x1(%eax),%edx
 80492be:	88 15 60 c4 04 08    	mov    %dl,0x804c460
 80492c4:	0f b6 c0             	movzbl %al,%eax
 80492c7:	c6 80 60 c3 04 08 44 	movb   $0x44,0x804c360(%eax)
 80492ce:	90                   	nop
 80492cf:	5d                   	pop    %ebp
 80492d0:	c3                   	ret    

080492d1 <play_x45>:
 80492d1:	55                   	push   %ebp
 80492d2:	89 e5                	mov    %esp,%ebp
 80492d4:	0f b6 05 60 c4 04 08 	movzbl 0x804c460,%eax
 80492db:	8d 50 01             	lea    0x1(%eax),%edx
 80492de:	88 15 60 c4 04 08    	mov    %dl,0x804c460
 80492e4:	0f b6 c0             	movzbl %al,%eax
 80492e7:	c6 80 60 c3 04 08 45 	movb   $0x45,0x804c360(%eax)
 80492ee:	90                   	nop
 80492ef:	5d                   	pop    %ebp
 80492f0:	c3                   	ret    

080492f1 <play_x46>:
 80492f1:	55                   	push   %ebp
 80492f2:	89 e5                	mov    %esp,%ebp
 80492f4:	0f b6 05 60 c4 04 08 	movzbl 0x804c460,%eax
 80492fb:	8d 50 01             	lea    0x1(%eax),%edx
 80492fe:	88 15 60 c4 04 08    	mov    %dl,0x804c460
 8049304:	0f b6 c0             	movzbl %al,%eax
 8049307:	c6 80 60 c3 04 08 46 	movb   $0x46,0x804c360(%eax)
 804930e:	90                   	nop
 804930f:	5d                   	pop    %ebp
 8049310:	c3                   	ret    

08049311 <play_x47>:
 8049311:	55                   	push   %ebp
 8049312:	89 e5                	mov    %esp,%ebp
 8049314:	0f b6 05 60 c4 04 08 	movzbl 0x804c460,%eax
 804931b:	8d 50 01             	lea    0x1(%eax),%edx
 804931e:	88 15 60 c4 04 08    	mov    %dl,0x804c460
 8049324:	0f b6 c0             	movzbl %al,%eax
 8049327:	c6 80 60 c3 04 08 47 	movb   $0x47,0x804c360(%eax)
 804932e:	90                   	nop
 804932f:	5d                   	pop    %ebp
 8049330:	c3                   	ret    

08049331 <play_x48>:
 8049331:	55                   	push   %ebp
 8049332:	89 e5                	mov    %esp,%ebp
 8049334:	0f b6 05 60 c4 04 08 	movzbl 0x804c460,%eax
 804933b:	8d 50 01             	lea    0x1(%eax),%edx
 804933e:	88 15 60 c4 04 08    	mov    %dl,0x804c460
 8049344:	0f b6 c0             	movzbl %al,%eax
 8049347:	c6 80 60 c3 04 08 48 	movb   $0x48,0x804c360(%eax)
 804934e:	90                   	nop
 804934f:	5d                   	pop    %ebp
 8049350:	c3                   	ret    

08049351 <play_x49>:
 8049351:	55                   	push   %ebp
 8049352:	89 e5                	mov    %esp,%ebp
 8049354:	0f b6 05 60 c4 04 08 	movzbl 0x804c460,%eax
 804935b:	8d 50 01             	lea    0x1(%eax),%edx
 804935e:	88 15 60 c4 04 08    	mov    %dl,0x804c460
 8049364:	0f b6 c0             	movzbl %al,%eax
 8049367:	c6 80 60 c3 04 08 49 	movb   $0x49,0x804c360(%eax)
 804936e:	90                   	nop
 804936f:	5d                   	pop    %ebp
 8049370:	c3                   	ret    

08049371 <play_x4a>:
 8049371:	55                   	push   %ebp
 8049372:	89 e5                	mov    %esp,%ebp
 8049374:	0f b6 05 60 c4 04 08 	movzbl 0x804c460,%eax
 804937b:	8d 50 01             	lea    0x1(%eax),%edx
 804937e:	88 15 60 c4 04 08    	mov    %dl,0x804c460
 8049384:	0f b6 c0             	movzbl %al,%eax
 8049387:	c6 80 60 c3 04 08 4a 	movb   $0x4a,0x804c360(%eax)
 804938e:	90                   	nop
 804938f:	5d                   	pop    %ebp
 8049390:	c3                   	ret    

08049391 <play_x4b>:
 8049391:	55                   	push   %ebp
 8049392:	89 e5                	mov    %esp,%ebp
 8049394:	0f b6 05 60 c4 04 08 	movzbl 0x804c460,%eax
 804939b:	8d 50 01             	lea    0x1(%eax),%edx
 804939e:	88 15 60 c4 04 08    	mov    %dl,0x804c460
 80493a4:	0f b6 c0             	movzbl %al,%eax
 80493a7:	c6 80 60 c3 04 08 4b 	movb   $0x4b,0x804c360(%eax)
 80493ae:	90                   	nop
 80493af:	5d                   	pop    %ebp
 80493b0:	c3                   	ret    

080493b1 <play_x4c>:
 80493b1:	55                   	push   %ebp
 80493b2:	89 e5                	mov    %esp,%ebp
 80493b4:	0f b6 05 60 c4 04 08 	movzbl 0x804c460,%eax
 80493bb:	8d 50 01             	lea    0x1(%eax),%edx
 80493be:	88 15 60 c4 04 08    	mov    %dl,0x804c460
 80493c4:	0f b6 c0             	movzbl %al,%eax
 80493c7:	c6 80 60 c3 04 08 4c 	movb   $0x4c,0x804c360(%eax)
 80493ce:	90                   	nop
 80493cf:	5d                   	pop    %ebp
 80493d0:	c3                   	ret    

080493d1 <play_x4d>:
 80493d1:	55                   	push   %ebp
 80493d2:	89 e5                	mov    %esp,%ebp
 80493d4:	0f b6 05 60 c4 04 08 	movzbl 0x804c460,%eax
 80493db:	8d 50 01             	lea    0x1(%eax),%edx
 80493de:	88 15 60 c4 04 08    	mov    %dl,0x804c460
 80493e4:	0f b6 c0             	movzbl %al,%eax
 80493e7:	c6 80 60 c3 04 08 4d 	movb   $0x4d,0x804c360(%eax)
 80493ee:	90                   	nop
 80493ef:	5d                   	pop    %ebp
 80493f0:	c3                   	ret    

080493f1 <play_x4e>:
 80493f1:	55                   	push   %ebp
 80493f2:	89 e5                	mov    %esp,%ebp
 80493f4:	0f b6 05 60 c4 04 08 	movzbl 0x804c460,%eax
 80493fb:	8d 50 01             	lea    0x1(%eax),%edx
 80493fe:	88 15 60 c4 04 08    	mov    %dl,0x804c460
 8049404:	0f b6 c0             	movzbl %al,%eax
 8049407:	c6 80 60 c3 04 08 4e 	movb   $0x4e,0x804c360(%eax)
 804940e:	90                   	nop
 804940f:	5d                   	pop    %ebp
 8049410:	c3                   	ret    

08049411 <play_x4f>:
 8049411:	55                   	push   %ebp
 8049412:	89 e5                	mov    %esp,%ebp
 8049414:	0f b6 05 60 c4 04 08 	movzbl 0x804c460,%eax
 804941b:	8d 50 01             	lea    0x1(%eax),%edx
 804941e:	88 15 60 c4 04 08    	mov    %dl,0x804c460
 8049424:	0f b6 c0             	movzbl %al,%eax
 8049427:	c6 80 60 c3 04 08 4f 	movb   $0x4f,0x804c360(%eax)
 804942e:	90                   	nop
 804942f:	5d                   	pop    %ebp
 8049430:	c3                   	ret    

08049431 <play_x50>:
 8049431:	55                   	push   %ebp
 8049432:	89 e5                	mov    %esp,%ebp
 8049434:	0f b6 05 60 c4 04 08 	movzbl 0x804c460,%eax
 804943b:	8d 50 01             	lea    0x1(%eax),%edx
 804943e:	88 15 60 c4 04 08    	mov    %dl,0x804c460
 8049444:	0f b6 c0             	movzbl %al,%eax
 8049447:	c6 80 60 c3 04 08 50 	movb   $0x50,0x804c360(%eax)
 804944e:	90                   	nop
 804944f:	5d                   	pop    %ebp
 8049450:	c3                   	ret    

08049451 <play_x51>:
 8049451:	55                   	push   %ebp
 8049452:	89 e5                	mov    %esp,%ebp
 8049454:	0f b6 05 60 c4 04 08 	movzbl 0x804c460,%eax
 804945b:	8d 50 01             	lea    0x1(%eax),%edx
 804945e:	88 15 60 c4 04 08    	mov    %dl,0x804c460
 8049464:	0f b6 c0             	movzbl %al,%eax
 8049467:	c6 80 60 c3 04 08 51 	movb   $0x51,0x804c360(%eax)
 804946e:	90                   	nop
 804946f:	5d                   	pop    %ebp
 8049470:	c3                   	ret    

08049471 <play_x52>:
 8049471:	55                   	push   %ebp
 8049472:	89 e5                	mov    %esp,%ebp
 8049474:	0f b6 05 60 c4 04 08 	movzbl 0x804c460,%eax
 804947b:	8d 50 01             	lea    0x1(%eax),%edx
 804947e:	88 15 60 c4 04 08    	mov    %dl,0x804c460
 8049484:	0f b6 c0             	movzbl %al,%eax
 8049487:	c6 80 60 c3 04 08 52 	movb   $0x52,0x804c360(%eax)
 804948e:	90                   	nop
 804948f:	5d                   	pop    %ebp
 8049490:	c3                   	ret    

08049491 <play_x53>:
 8049491:	55                   	push   %ebp
 8049492:	89 e5                	mov    %esp,%ebp
 8049494:	0f b6 05 60 c4 04 08 	movzbl 0x804c460,%eax
 804949b:	8d 50 01             	lea    0x1(%eax),%edx
 804949e:	88 15 60 c4 04 08    	mov    %dl,0x804c460
 80494a4:	0f b6 c0             	movzbl %al,%eax
 80494a7:	c6 80 60 c3 04 08 53 	movb   $0x53,0x804c360(%eax)
 80494ae:	90                   	nop
 80494af:	5d                   	pop    %ebp
 80494b0:	c3                   	ret    

080494b1 <play_x54>:
 80494b1:	55                   	push   %ebp
 80494b2:	89 e5                	mov    %esp,%ebp
 80494b4:	0f b6 05 60 c4 04 08 	movzbl 0x804c460,%eax
 80494bb:	8d 50 01             	lea    0x1(%eax),%edx
 80494be:	88 15 60 c4 04 08    	mov    %dl,0x804c460
 80494c4:	0f b6 c0             	movzbl %al,%eax
 80494c7:	c6 80 60 c3 04 08 54 	movb   $0x54,0x804c360(%eax)
 80494ce:	90                   	nop
 80494cf:	5d                   	pop    %ebp
 80494d0:	c3                   	ret    

080494d1 <play_x55>:
 80494d1:	55                   	push   %ebp
 80494d2:	89 e5                	mov    %esp,%ebp
 80494d4:	0f b6 05 60 c4 04 08 	movzbl 0x804c460,%eax
 80494db:	8d 50 01             	lea    0x1(%eax),%edx
 80494de:	88 15 60 c4 04 08    	mov    %dl,0x804c460
 80494e4:	0f b6 c0             	movzbl %al,%eax
 80494e7:	c6 80 60 c3 04 08 55 	movb   $0x55,0x804c360(%eax)
 80494ee:	90                   	nop
 80494ef:	5d                   	pop    %ebp
 80494f0:	c3                   	ret    

080494f1 <play_x56>:
 80494f1:	55                   	push   %ebp
 80494f2:	89 e5                	mov    %esp,%ebp
 80494f4:	0f b6 05 60 c4 04 08 	movzbl 0x804c460,%eax
 80494fb:	8d 50 01             	lea    0x1(%eax),%edx
 80494fe:	88 15 60 c4 04 08    	mov    %dl,0x804c460
 8049504:	0f b6 c0             	movzbl %al,%eax
 8049507:	c6 80 60 c3 04 08 56 	movb   $0x56,0x804c360(%eax)
 804950e:	90                   	nop
 804950f:	5d                   	pop    %ebp
 8049510:	c3                   	ret    

08049511 <play_x57>:
 8049511:	55                   	push   %ebp
 8049512:	89 e5                	mov    %esp,%ebp
 8049514:	0f b6 05 60 c4 04 08 	movzbl 0x804c460,%eax
 804951b:	8d 50 01             	lea    0x1(%eax),%edx
 804951e:	88 15 60 c4 04 08    	mov    %dl,0x804c460
 8049524:	0f b6 c0             	movzbl %al,%eax
 8049527:	c6 80 60 c3 04 08 57 	movb   $0x57,0x804c360(%eax)
 804952e:	90                   	nop
 804952f:	5d                   	pop    %ebp
 8049530:	c3                   	ret    

08049531 <play_x58>:
 8049531:	55                   	push   %ebp
 8049532:	89 e5                	mov    %esp,%ebp
 8049534:	0f b6 05 60 c4 04 08 	movzbl 0x804c460,%eax
 804953b:	8d 50 01             	lea    0x1(%eax),%edx
 804953e:	88 15 60 c4 04 08    	mov    %dl,0x804c460
 8049544:	0f b6 c0             	movzbl %al,%eax
 8049547:	c6 80 60 c3 04 08 58 	movb   $0x58,0x804c360(%eax)
 804954e:	90                   	nop
 804954f:	5d                   	pop    %ebp
 8049550:	c3                   	ret    

08049551 <play_x59>:
 8049551:	55                   	push   %ebp
 8049552:	89 e5                	mov    %esp,%ebp
 8049554:	0f b6 05 60 c4 04 08 	movzbl 0x804c460,%eax
 804955b:	8d 50 01             	lea    0x1(%eax),%edx
 804955e:	88 15 60 c4 04 08    	mov    %dl,0x804c460
 8049564:	0f b6 c0             	movzbl %al,%eax
 8049567:	c6 80 60 c3 04 08 59 	movb   $0x59,0x804c360(%eax)
 804956e:	90                   	nop
 804956f:	5d                   	pop    %ebp
 8049570:	c3                   	ret    

08049571 <play_x5a>:
 8049571:	55                   	push   %ebp
 8049572:	89 e5                	mov    %esp,%ebp
 8049574:	0f b6 05 60 c4 04 08 	movzbl 0x804c460,%eax
 804957b:	8d 50 01             	lea    0x1(%eax),%edx
 804957e:	88 15 60 c4 04 08    	mov    %dl,0x804c460
 8049584:	0f b6 c0             	movzbl %al,%eax
 8049587:	c6 80 60 c3 04 08 5a 	movb   $0x5a,0x804c360(%eax)
 804958e:	90                   	nop
 804958f:	5d                   	pop    %ebp
 8049590:	c3                   	ret    

08049591 <play_x5b>:
 8049591:	55                   	push   %ebp
 8049592:	89 e5                	mov    %esp,%ebp
 8049594:	0f b6 05 60 c4 04 08 	movzbl 0x804c460,%eax
 804959b:	8d 50 01             	lea    0x1(%eax),%edx
 804959e:	88 15 60 c4 04 08    	mov    %dl,0x804c460
 80495a4:	0f b6 c0             	movzbl %al,%eax
 80495a7:	c6 80 60 c3 04 08 5b 	movb   $0x5b,0x804c360(%eax)
 80495ae:	90                   	nop
 80495af:	5d                   	pop    %ebp
 80495b0:	c3                   	ret    

080495b1 <play_x5c>:
 80495b1:	55                   	push   %ebp
 80495b2:	89 e5                	mov    %esp,%ebp
 80495b4:	0f b6 05 60 c4 04 08 	movzbl 0x804c460,%eax
 80495bb:	8d 50 01             	lea    0x1(%eax),%edx
 80495be:	88 15 60 c4 04 08    	mov    %dl,0x804c460
 80495c4:	0f b6 c0             	movzbl %al,%eax
 80495c7:	c6 80 60 c3 04 08 5c 	movb   $0x5c,0x804c360(%eax)
 80495ce:	90                   	nop
 80495cf:	5d                   	pop    %ebp
 80495d0:	c3                   	ret    

080495d1 <play_x5d>:
 80495d1:	55                   	push   %ebp
 80495d2:	89 e5                	mov    %esp,%ebp
 80495d4:	0f b6 05 60 c4 04 08 	movzbl 0x804c460,%eax
 80495db:	8d 50 01             	lea    0x1(%eax),%edx
 80495de:	88 15 60 c4 04 08    	mov    %dl,0x804c460
 80495e4:	0f b6 c0             	movzbl %al,%eax
 80495e7:	c6 80 60 c3 04 08 5d 	movb   $0x5d,0x804c360(%eax)
 80495ee:	90                   	nop
 80495ef:	5d                   	pop    %ebp
 80495f0:	c3                   	ret    

080495f1 <play_x5e>:
 80495f1:	55                   	push   %ebp
 80495f2:	89 e5                	mov    %esp,%ebp
 80495f4:	0f b6 05 60 c4 04 08 	movzbl 0x804c460,%eax
 80495fb:	8d 50 01             	lea    0x1(%eax),%edx
 80495fe:	88 15 60 c4 04 08    	mov    %dl,0x804c460
 8049604:	0f b6 c0             	movzbl %al,%eax
 8049607:	c6 80 60 c3 04 08 5e 	movb   $0x5e,0x804c360(%eax)
 804960e:	90                   	nop
 804960f:	5d                   	pop    %ebp
 8049610:	c3                   	ret    

08049611 <play_x5f>:
 8049611:	55                   	push   %ebp
 8049612:	89 e5                	mov    %esp,%ebp
 8049614:	0f b6 05 60 c4 04 08 	movzbl 0x804c460,%eax
 804961b:	8d 50 01             	lea    0x1(%eax),%edx
 804961e:	88 15 60 c4 04 08    	mov    %dl,0x804c460
 8049624:	0f b6 c0             	movzbl %al,%eax
 8049627:	c6 80 60 c3 04 08 5f 	movb   $0x5f,0x804c360(%eax)
 804962e:	90                   	nop
 804962f:	5d                   	pop    %ebp
 8049630:	c3                   	ret    

08049631 <play_x60>:
 8049631:	55                   	push   %ebp
 8049632:	89 e5                	mov    %esp,%ebp
 8049634:	0f b6 05 60 c4 04 08 	movzbl 0x804c460,%eax
 804963b:	8d 50 01             	lea    0x1(%eax),%edx
 804963e:	88 15 60 c4 04 08    	mov    %dl,0x804c460
 8049644:	0f b6 c0             	movzbl %al,%eax
 8049647:	c6 80 60 c3 04 08 60 	movb   $0x60,0x804c360(%eax)
 804964e:	90                   	nop
 804964f:	5d                   	pop    %ebp
 8049650:	c3                   	ret    

08049651 <play_x61>:
 8049651:	55                   	push   %ebp
 8049652:	89 e5                	mov    %esp,%ebp
 8049654:	0f b6 05 60 c4 04 08 	movzbl 0x804c460,%eax
 804965b:	8d 50 01             	lea    0x1(%eax),%edx
 804965e:	88 15 60 c4 04 08    	mov    %dl,0x804c460
 8049664:	0f b6 c0             	movzbl %al,%eax
 8049667:	c6 80 60 c3 04 08 61 	movb   $0x61,0x804c360(%eax)
 804966e:	90                   	nop
 804966f:	5d                   	pop    %ebp
 8049670:	c3                   	ret    

08049671 <play_x62>:
 8049671:	55                   	push   %ebp
 8049672:	89 e5                	mov    %esp,%ebp
 8049674:	0f b6 05 60 c4 04 08 	movzbl 0x804c460,%eax
 804967b:	8d 50 01             	lea    0x1(%eax),%edx
 804967e:	88 15 60 c4 04 08    	mov    %dl,0x804c460
 8049684:	0f b6 c0             	movzbl %al,%eax
 8049687:	c6 80 60 c3 04 08 62 	movb   $0x62,0x804c360(%eax)
 804968e:	90                   	nop
 804968f:	5d                   	pop    %ebp
 8049690:	c3                   	ret    

08049691 <play_x63>:
 8049691:	55                   	push   %ebp
 8049692:	89 e5                	mov    %esp,%ebp
 8049694:	0f b6 05 60 c4 04 08 	movzbl 0x804c460,%eax
 804969b:	8d 50 01             	lea    0x1(%eax),%edx
 804969e:	88 15 60 c4 04 08    	mov    %dl,0x804c460
 80496a4:	0f b6 c0             	movzbl %al,%eax
 80496a7:	c6 80 60 c3 04 08 63 	movb   $0x63,0x804c360(%eax)
 80496ae:	90                   	nop
 80496af:	5d                   	pop    %ebp
 80496b0:	c3                   	ret    

080496b1 <play_x64>:
 80496b1:	55                   	push   %ebp
 80496b2:	89 e5                	mov    %esp,%ebp
 80496b4:	0f b6 05 60 c4 04 08 	movzbl 0x804c460,%eax
 80496bb:	8d 50 01             	lea    0x1(%eax),%edx
 80496be:	88 15 60 c4 04 08    	mov    %dl,0x804c460
 80496c4:	0f b6 c0             	movzbl %al,%eax
 80496c7:	c6 80 60 c3 04 08 64 	movb   $0x64,0x804c360(%eax)
 80496ce:	90                   	nop
 80496cf:	5d                   	pop    %ebp
 80496d0:	c3                   	ret    

080496d1 <play_x65>:
 80496d1:	55                   	push   %ebp
 80496d2:	89 e5                	mov    %esp,%ebp
 80496d4:	0f b6 05 60 c4 04 08 	movzbl 0x804c460,%eax
 80496db:	8d 50 01             	lea    0x1(%eax),%edx
 80496de:	88 15 60 c4 04 08    	mov    %dl,0x804c460
 80496e4:	0f b6 c0             	movzbl %al,%eax
 80496e7:	c6 80 60 c3 04 08 65 	movb   $0x65,0x804c360(%eax)
 80496ee:	90                   	nop
 80496ef:	5d                   	pop    %ebp
 80496f0:	c3                   	ret    

080496f1 <play_x66>:
 80496f1:	55                   	push   %ebp
 80496f2:	89 e5                	mov    %esp,%ebp
 80496f4:	0f b6 05 60 c4 04 08 	movzbl 0x804c460,%eax
 80496fb:	8d 50 01             	lea    0x1(%eax),%edx
 80496fe:	88 15 60 c4 04 08    	mov    %dl,0x804c460
 8049704:	0f b6 c0             	movzbl %al,%eax
 8049707:	c6 80 60 c3 04 08 66 	movb   $0x66,0x804c360(%eax)
 804970e:	90                   	nop
 804970f:	5d                   	pop    %ebp
 8049710:	c3                   	ret    

08049711 <play_x67>:
 8049711:	55                   	push   %ebp
 8049712:	89 e5                	mov    %esp,%ebp
 8049714:	0f b6 05 60 c4 04 08 	movzbl 0x804c460,%eax
 804971b:	8d 50 01             	lea    0x1(%eax),%edx
 804971e:	88 15 60 c4 04 08    	mov    %dl,0x804c460
 8049724:	0f b6 c0             	movzbl %al,%eax
 8049727:	c6 80 60 c3 04 08 67 	movb   $0x67,0x804c360(%eax)
 804972e:	90                   	nop
 804972f:	5d                   	pop    %ebp
 8049730:	c3                   	ret    

08049731 <play_x68>:
 8049731:	55                   	push   %ebp
 8049732:	89 e5                	mov    %esp,%ebp
 8049734:	0f b6 05 60 c4 04 08 	movzbl 0x804c460,%eax
 804973b:	8d 50 01             	lea    0x1(%eax),%edx
 804973e:	88 15 60 c4 04 08    	mov    %dl,0x804c460
 8049744:	0f b6 c0             	movzbl %al,%eax
 8049747:	c6 80 60 c3 04 08 68 	movb   $0x68,0x804c360(%eax)
 804974e:	90                   	nop
 804974f:	5d                   	pop    %ebp
 8049750:	c3                   	ret    

08049751 <play_x69>:
 8049751:	55                   	push   %ebp
 8049752:	89 e5                	mov    %esp,%ebp
 8049754:	0f b6 05 60 c4 04 08 	movzbl 0x804c460,%eax
 804975b:	8d 50 01             	lea    0x1(%eax),%edx
 804975e:	88 15 60 c4 04 08    	mov    %dl,0x804c460
 8049764:	0f b6 c0             	movzbl %al,%eax
 8049767:	c6 80 60 c3 04 08 69 	movb   $0x69,0x804c360(%eax)
 804976e:	90                   	nop
 804976f:	5d                   	pop    %ebp
 8049770:	c3                   	ret    

08049771 <play_x6a>:
 8049771:	55                   	push   %ebp
 8049772:	89 e5                	mov    %esp,%ebp
 8049774:	0f b6 05 60 c4 04 08 	movzbl 0x804c460,%eax
 804977b:	8d 50 01             	lea    0x1(%eax),%edx
 804977e:	88 15 60 c4 04 08    	mov    %dl,0x804c460
 8049784:	0f b6 c0             	movzbl %al,%eax
 8049787:	c6 80 60 c3 04 08 6a 	movb   $0x6a,0x804c360(%eax)
 804978e:	90                   	nop
 804978f:	5d                   	pop    %ebp
 8049790:	c3                   	ret    

08049791 <play_x6b>:
 8049791:	55                   	push   %ebp
 8049792:	89 e5                	mov    %esp,%ebp
 8049794:	0f b6 05 60 c4 04 08 	movzbl 0x804c460,%eax
 804979b:	8d 50 01             	lea    0x1(%eax),%edx
 804979e:	88 15 60 c4 04 08    	mov    %dl,0x804c460
 80497a4:	0f b6 c0             	movzbl %al,%eax
 80497a7:	c6 80 60 c3 04 08 6b 	movb   $0x6b,0x804c360(%eax)
 80497ae:	90                   	nop
 80497af:	5d                   	pop    %ebp
 80497b0:	c3                   	ret    

080497b1 <play_x6c>:
 80497b1:	55                   	push   %ebp
 80497b2:	89 e5                	mov    %esp,%ebp
 80497b4:	0f b6 05 60 c4 04 08 	movzbl 0x804c460,%eax
 80497bb:	8d 50 01             	lea    0x1(%eax),%edx
 80497be:	88 15 60 c4 04 08    	mov    %dl,0x804c460
 80497c4:	0f b6 c0             	movzbl %al,%eax
 80497c7:	c6 80 60 c3 04 08 6c 	movb   $0x6c,0x804c360(%eax)
 80497ce:	90                   	nop
 80497cf:	5d                   	pop    %ebp
 80497d0:	c3                   	ret    

080497d1 <play_x6d>:
 80497d1:	55                   	push   %ebp
 80497d2:	89 e5                	mov    %esp,%ebp
 80497d4:	0f b6 05 60 c4 04 08 	movzbl 0x804c460,%eax
 80497db:	8d 50 01             	lea    0x1(%eax),%edx
 80497de:	88 15 60 c4 04 08    	mov    %dl,0x804c460
 80497e4:	0f b6 c0             	movzbl %al,%eax
 80497e7:	c6 80 60 c3 04 08 6d 	movb   $0x6d,0x804c360(%eax)
 80497ee:	90                   	nop
 80497ef:	5d                   	pop    %ebp
 80497f0:	c3                   	ret    

080497f1 <play_x6e>:
 80497f1:	55                   	push   %ebp
 80497f2:	89 e5                	mov    %esp,%ebp
 80497f4:	0f b6 05 60 c4 04 08 	movzbl 0x804c460,%eax
 80497fb:	8d 50 01             	lea    0x1(%eax),%edx
 80497fe:	88 15 60 c4 04 08    	mov    %dl,0x804c460
 8049804:	0f b6 c0             	movzbl %al,%eax
 8049807:	c6 80 60 c3 04 08 6e 	movb   $0x6e,0x804c360(%eax)
 804980e:	90                   	nop
 804980f:	5d                   	pop    %ebp
 8049810:	c3                   	ret    

08049811 <play_x6f>:
 8049811:	55                   	push   %ebp
 8049812:	89 e5                	mov    %esp,%ebp
 8049814:	0f b6 05 60 c4 04 08 	movzbl 0x804c460,%eax
 804981b:	8d 50 01             	lea    0x1(%eax),%edx
 804981e:	88 15 60 c4 04 08    	mov    %dl,0x804c460
 8049824:	0f b6 c0             	movzbl %al,%eax
 8049827:	c6 80 60 c3 04 08 6f 	movb   $0x6f,0x804c360(%eax)
 804982e:	90                   	nop
 804982f:	5d                   	pop    %ebp
 8049830:	c3                   	ret    

08049831 <play_x70>:
 8049831:	55                   	push   %ebp
 8049832:	89 e5                	mov    %esp,%ebp
 8049834:	0f b6 05 60 c4 04 08 	movzbl 0x804c460,%eax
 804983b:	8d 50 01             	lea    0x1(%eax),%edx
 804983e:	88 15 60 c4 04 08    	mov    %dl,0x804c460
 8049844:	0f b6 c0             	movzbl %al,%eax
 8049847:	c6 80 60 c3 04 08 70 	movb   $0x70,0x804c360(%eax)
 804984e:	90                   	nop
 804984f:	5d                   	pop    %ebp
 8049850:	c3                   	ret    

08049851 <play_x71>:
 8049851:	55                   	push   %ebp
 8049852:	89 e5                	mov    %esp,%ebp
 8049854:	0f b6 05 60 c4 04 08 	movzbl 0x804c460,%eax
 804985b:	8d 50 01             	lea    0x1(%eax),%edx
 804985e:	88 15 60 c4 04 08    	mov    %dl,0x804c460
 8049864:	0f b6 c0             	movzbl %al,%eax
 8049867:	c6 80 60 c3 04 08 71 	movb   $0x71,0x804c360(%eax)
 804986e:	90                   	nop
 804986f:	5d                   	pop    %ebp
 8049870:	c3                   	ret    

08049871 <play_x72>:
 8049871:	55                   	push   %ebp
 8049872:	89 e5                	mov    %esp,%ebp
 8049874:	0f b6 05 60 c4 04 08 	movzbl 0x804c460,%eax
 804987b:	8d 50 01             	lea    0x1(%eax),%edx
 804987e:	88 15 60 c4 04 08    	mov    %dl,0x804c460
 8049884:	0f b6 c0             	movzbl %al,%eax
 8049887:	c6 80 60 c3 04 08 72 	movb   $0x72,0x804c360(%eax)
 804988e:	90                   	nop
 804988f:	5d                   	pop    %ebp
 8049890:	c3                   	ret    

08049891 <play_x73>:
 8049891:	55                   	push   %ebp
 8049892:	89 e5                	mov    %esp,%ebp
 8049894:	0f b6 05 60 c4 04 08 	movzbl 0x804c460,%eax
 804989b:	8d 50 01             	lea    0x1(%eax),%edx
 804989e:	88 15 60 c4 04 08    	mov    %dl,0x804c460
 80498a4:	0f b6 c0             	movzbl %al,%eax
 80498a7:	c6 80 60 c3 04 08 73 	movb   $0x73,0x804c360(%eax)
 80498ae:	90                   	nop
 80498af:	5d                   	pop    %ebp
 80498b0:	c3                   	ret    

080498b1 <play_x74>:
 80498b1:	55                   	push   %ebp
 80498b2:	89 e5                	mov    %esp,%ebp
 80498b4:	0f b6 05 60 c4 04 08 	movzbl 0x804c460,%eax
 80498bb:	8d 50 01             	lea    0x1(%eax),%edx
 80498be:	88 15 60 c4 04 08    	mov    %dl,0x804c460
 80498c4:	0f b6 c0             	movzbl %al,%eax
 80498c7:	c6 80 60 c3 04 08 74 	movb   $0x74,0x804c360(%eax)
 80498ce:	90                   	nop
 80498cf:	5d                   	pop    %ebp
 80498d0:	c3                   	ret    

080498d1 <play_x75>:
 80498d1:	55                   	push   %ebp
 80498d2:	89 e5                	mov    %esp,%ebp
 80498d4:	0f b6 05 60 c4 04 08 	movzbl 0x804c460,%eax
 80498db:	8d 50 01             	lea    0x1(%eax),%edx
 80498de:	88 15 60 c4 04 08    	mov    %dl,0x804c460
 80498e4:	0f b6 c0             	movzbl %al,%eax
 80498e7:	c6 80 60 c3 04 08 75 	movb   $0x75,0x804c360(%eax)
 80498ee:	90                   	nop
 80498ef:	5d                   	pop    %ebp
 80498f0:	c3                   	ret    

080498f1 <play_x76>:
 80498f1:	55                   	push   %ebp
 80498f2:	89 e5                	mov    %esp,%ebp
 80498f4:	0f b6 05 60 c4 04 08 	movzbl 0x804c460,%eax
 80498fb:	8d 50 01             	lea    0x1(%eax),%edx
 80498fe:	88 15 60 c4 04 08    	mov    %dl,0x804c460
 8049904:	0f b6 c0             	movzbl %al,%eax
 8049907:	c6 80 60 c3 04 08 76 	movb   $0x76,0x804c360(%eax)
 804990e:	90                   	nop
 804990f:	5d                   	pop    %ebp
 8049910:	c3                   	ret    

08049911 <play_x77>:
 8049911:	55                   	push   %ebp
 8049912:	89 e5                	mov    %esp,%ebp
 8049914:	0f b6 05 60 c4 04 08 	movzbl 0x804c460,%eax
 804991b:	8d 50 01             	lea    0x1(%eax),%edx
 804991e:	88 15 60 c4 04 08    	mov    %dl,0x804c460
 8049924:	0f b6 c0             	movzbl %al,%eax
 8049927:	c6 80 60 c3 04 08 77 	movb   $0x77,0x804c360(%eax)
 804992e:	90                   	nop
 804992f:	5d                   	pop    %ebp
 8049930:	c3                   	ret    

08049931 <play_x78>:
 8049931:	55                   	push   %ebp
 8049932:	89 e5                	mov    %esp,%ebp
 8049934:	0f b6 05 60 c4 04 08 	movzbl 0x804c460,%eax
 804993b:	8d 50 01             	lea    0x1(%eax),%edx
 804993e:	88 15 60 c4 04 08    	mov    %dl,0x804c460
 8049944:	0f b6 c0             	movzbl %al,%eax
 8049947:	c6 80 60 c3 04 08 78 	movb   $0x78,0x804c360(%eax)
 804994e:	90                   	nop
 804994f:	5d                   	pop    %ebp
 8049950:	c3                   	ret    

08049951 <play_x79>:
 8049951:	55                   	push   %ebp
 8049952:	89 e5                	mov    %esp,%ebp
 8049954:	0f b6 05 60 c4 04 08 	movzbl 0x804c460,%eax
 804995b:	8d 50 01             	lea    0x1(%eax),%edx
 804995e:	88 15 60 c4 04 08    	mov    %dl,0x804c460
 8049964:	0f b6 c0             	movzbl %al,%eax
 8049967:	c6 80 60 c3 04 08 79 	movb   $0x79,0x804c360(%eax)
 804996e:	90                   	nop
 804996f:	5d                   	pop    %ebp
 8049970:	c3                   	ret    

08049971 <play_x7a>:
 8049971:	55                   	push   %ebp
 8049972:	89 e5                	mov    %esp,%ebp
 8049974:	0f b6 05 60 c4 04 08 	movzbl 0x804c460,%eax
 804997b:	8d 50 01             	lea    0x1(%eax),%edx
 804997e:	88 15 60 c4 04 08    	mov    %dl,0x804c460
 8049984:	0f b6 c0             	movzbl %al,%eax
 8049987:	c6 80 60 c3 04 08 7a 	movb   $0x7a,0x804c360(%eax)
 804998e:	90                   	nop
 804998f:	5d                   	pop    %ebp
 8049990:	c3                   	ret    

08049991 <play_x7b>:
 8049991:	55                   	push   %ebp
 8049992:	89 e5                	mov    %esp,%ebp
 8049994:	0f b6 05 60 c4 04 08 	movzbl 0x804c460,%eax
 804999b:	8d 50 01             	lea    0x1(%eax),%edx
 804999e:	88 15 60 c4 04 08    	mov    %dl,0x804c460
 80499a4:	0f b6 c0             	movzbl %al,%eax
 80499a7:	c6 80 60 c3 04 08 7b 	movb   $0x7b,0x804c360(%eax)
 80499ae:	90                   	nop
 80499af:	5d                   	pop    %ebp
 80499b0:	c3                   	ret    

080499b1 <play_x7c>:
 80499b1:	55                   	push   %ebp
 80499b2:	89 e5                	mov    %esp,%ebp
 80499b4:	0f b6 05 60 c4 04 08 	movzbl 0x804c460,%eax
 80499bb:	8d 50 01             	lea    0x1(%eax),%edx
 80499be:	88 15 60 c4 04 08    	mov    %dl,0x804c460
 80499c4:	0f b6 c0             	movzbl %al,%eax
 80499c7:	c6 80 60 c3 04 08 7c 	movb   $0x7c,0x804c360(%eax)
 80499ce:	90                   	nop
 80499cf:	5d                   	pop    %ebp
 80499d0:	c3                   	ret    

080499d1 <play_x7d>:
 80499d1:	55                   	push   %ebp
 80499d2:	89 e5                	mov    %esp,%ebp
 80499d4:	0f b6 05 60 c4 04 08 	movzbl 0x804c460,%eax
 80499db:	8d 50 01             	lea    0x1(%eax),%edx
 80499de:	88 15 60 c4 04 08    	mov    %dl,0x804c460
 80499e4:	0f b6 c0             	movzbl %al,%eax
 80499e7:	c6 80 60 c3 04 08 7d 	movb   $0x7d,0x804c360(%eax)
 80499ee:	90                   	nop
 80499ef:	5d                   	pop    %ebp
 80499f0:	c3                   	ret    

080499f1 <play_x7e>:
 80499f1:	55                   	push   %ebp
 80499f2:	89 e5                	mov    %esp,%ebp
 80499f4:	0f b6 05 60 c4 04 08 	movzbl 0x804c460,%eax
 80499fb:	8d 50 01             	lea    0x1(%eax),%edx
 80499fe:	88 15 60 c4 04 08    	mov    %dl,0x804c460
 8049a04:	0f b6 c0             	movzbl %al,%eax
 8049a07:	c6 80 60 c3 04 08 7e 	movb   $0x7e,0x804c360(%eax)
 8049a0e:	90                   	nop
 8049a0f:	5d                   	pop    %ebp
 8049a10:	c3                   	ret    

08049a11 <play_x7f>:
 8049a11:	55                   	push   %ebp
 8049a12:	89 e5                	mov    %esp,%ebp
 8049a14:	0f b6 05 60 c4 04 08 	movzbl 0x804c460,%eax
 8049a1b:	8d 50 01             	lea    0x1(%eax),%edx
 8049a1e:	88 15 60 c4 04 08    	mov    %dl,0x804c460
 8049a24:	0f b6 c0             	movzbl %al,%eax
 8049a27:	c6 80 60 c3 04 08 7f 	movb   $0x7f,0x804c360(%eax)
 8049a2e:	90                   	nop
 8049a2f:	5d                   	pop    %ebp
 8049a30:	c3                   	ret    

08049a31 <play_melody_4realz>:
 8049a31:	55                   	push   %ebp
 8049a32:	89 e5                	mov    %esp,%ebp
 8049a34:	83 ec 08             	sub    $0x8,%esp
 8049a37:	83 ec 0c             	sub    $0xc,%esp
 8049a3a:	68 60 c3 04 08       	push   $0x804c360
 8049a3f:	e8 8c ea ff ff       	call   80484d0 <system@plt>
 8049a44:	83 c4 10             	add    $0x10,%esp
 8049a47:	90                   	nop
 8049a48:	c9                   	leave  
 8049a49:	c3                   	ret    
 8049a4a:	66 90                	xchg   %ax,%ax
 8049a4c:	66 90                	xchg   %ax,%ax
 8049a4e:	66 90                	xchg   %ax,%ax

08049a50 <__libc_csu_init>:
 8049a50:	55                   	push   %ebp
 8049a51:	57                   	push   %edi
 8049a52:	56                   	push   %esi
 8049a53:	53                   	push   %ebx
 8049a54:	e8 37 eb ff ff       	call   8048590 <__x86.get_pc_thunk.bx>
 8049a59:	81 c3 8f 28 00 00    	add    $0x288f,%ebx
 8049a5f:	83 ec 0c             	sub    $0xc,%esp
 8049a62:	8b 6c 24 20          	mov    0x20(%esp),%ebp
 8049a66:	8d b3 0c ff ff ff    	lea    -0xf4(%ebx),%esi
 8049a6c:	e8 db e9 ff ff       	call   804844c <_init>
 8049a71:	8d 83 08 ff ff ff    	lea    -0xf8(%ebx),%eax
 8049a77:	29 c6                	sub    %eax,%esi
 8049a79:	c1 fe 02             	sar    $0x2,%esi
 8049a7c:	85 f6                	test   %esi,%esi
 8049a7e:	74 25                	je     8049aa5 <__libc_csu_init+0x55>
 8049a80:	31 ff                	xor    %edi,%edi
 8049a82:	8d b6 00 00 00 00    	lea    0x0(%esi),%esi
 8049a88:	83 ec 04             	sub    $0x4,%esp
 8049a8b:	ff 74 24 2c          	pushl  0x2c(%esp)
 8049a8f:	ff 74 24 2c          	pushl  0x2c(%esp)
 8049a93:	55                   	push   %ebp
 8049a94:	ff 94 bb 08 ff ff ff 	call   *-0xf8(%ebx,%edi,4)
 8049a9b:	83 c7 01             	add    $0x1,%edi
 8049a9e:	83 c4 10             	add    $0x10,%esp
 8049aa1:	39 f7                	cmp    %esi,%edi
 8049aa3:	75 e3                	jne    8049a88 <__libc_csu_init+0x38>
 8049aa5:	83 c4 0c             	add    $0xc,%esp
 8049aa8:	5b                   	pop    %ebx
 8049aa9:	5e                   	pop    %esi
 8049aaa:	5f                   	pop    %edi
 8049aab:	5d                   	pop    %ebp
 8049aac:	c3                   	ret    
 8049aad:	8d 76 00             	lea    0x0(%esi),%esi

08049ab0 <__libc_csu_fini>:
 8049ab0:	f3 c3                	repz ret 

Disassembly of section .fini:

08049ab4 <_fini>:
 8049ab4:	53                   	push   %ebx
 8049ab5:	83 ec 08             	sub    $0x8,%esp
 8049ab8:	e8 d3 ea ff ff       	call   8048590 <__x86.get_pc_thunk.bx>
 8049abd:	81 c3 2b 28 00 00    	add    $0x282b,%ebx
 8049ac3:	83 c4 08             	add    $0x8,%esp
 8049ac6:	5b                   	pop    %ebx
 8049ac7:	c3                   	ret    
